                                      1 ;--------------------------------------------------------
                                      2 ; File Created by SDCC : free open source ANSI-C Compiler
                                      3 ; Version 4.2.0 #13081 (Linux)
                                      4 ;--------------------------------------------------------
                                      5 	.module ps_engine
                                      6 	.optsdcc -mz80
                                      7 	
                                      8 ;--------------------------------------------------------
                                      9 ; Public variables in this module
                                     10 ;--------------------------------------------------------
                                     11 	.globl ___SMS__SEGA_signature
                                     12 	.globl _main
                                     13 	.globl _SMS_VRAMmemcpy
                                     14 	.globl _SMS_getKeysPressed
                                     15 	.globl _SMS_getKeysStatus
                                     16 	.globl _SMS_loadSpritePalette
                                     17 	.globl _SMS_loadBGPalette
                                     18 	.globl _SMS_setBGPaletteColor
                                     19 	.globl _SMS_copySpritestoSAT
                                     20 	.globl _SMS_initSprites
                                     21 	.globl _SMS_load1bppTiles
                                     22 	.globl _SMS_crt0_RST18
                                     23 	.globl _SMS_crt0_RST08
                                     24 	.globl _SMS_waitForVBlank
                                     25 	.globl _SMS_setBackdropColor
                                     26 	.globl _SMS_VDPturnOffFeature
                                     27 	.globl _SMS_VDPturnOnFeature
                                     28 	.globl _SMS_SRAM
                                     29 	.globl _SRAM_bank_to_be_mapped_on_slot2
                                     30 	.globl _ROM_bank_to_be_mapped_on_slot0
                                     31 	.globl _ROM_bank_to_be_mapped_on_slot1
                                     32 	.globl _ROM_bank_to_be_mapped_on_slot2
                                     33 	.globl _ps_font
                                     34 ;--------------------------------------------------------
                                     35 ; special function registers
                                     36 ;--------------------------------------------------------
                           0000BF    37 _SMS_VDPControlPort	=	0x00bf
                                     38 ;--------------------------------------------------------
                                     39 ; ram data
                                     40 ;--------------------------------------------------------
                                     41 	.area _DATA
                           00FFFF    42 _ROM_bank_to_be_mapped_on_slot2	=	0xffff
                           00FFFE    43 _ROM_bank_to_be_mapped_on_slot1	=	0xfffe
                           00FFFD    44 _ROM_bank_to_be_mapped_on_slot0	=	0xfffd
                           00FFFC    45 _SRAM_bank_to_be_mapped_on_slot2	=	0xfffc
                           008000    46 _SMS_SRAM	=	0x8000
      000000                         47 _g_nobj:
      000000                         48 	.ds 1
      000001                         49 _g_nlayers:
      000001                         50 	.ds 1
      000002                         51 _g_nlevels:
      000002                         52 	.ds 1
      000003                         53 _g_flags:
      000003                         54 	.ds 1
      000004                         55 _g_again_interval:
      000004                         56 	.ds 1
      000005                         57 _g_textcol:
      000005                         58 	.ds 1
      000006                         59 _g_playerMask:
      000006                         60 	.ds 4
      00000A                         61 _g_allMask:
      00000A                         62 	.ds 4
      00000E                         63 _g_layerMasks:
      00000E                         64 	.ds 24
      000026                         65 _g_objLayer:
      000026                         66 	.ds 32
      000046                         67 _g_drawOrder:
      000046                         68 	.ds 32
      000066                         69 _g_palette:
      000066                         70 	.ds 16
      000076                         71 _g_far_tiles:
      000076                         72 	.ds 3
      000079                         73 _g_far_levels:
      000079                         74 	.ds 3
      00007C                         75 _g_far_rules:
      00007C                         76 	.ds 3
      00007F                         77 _g_far_late:
      00007F                         78 	.ds 3
      000082                         79 _g_far_win:
      000082                         80 	.ds 3
      000085                         81 _g_far_msgs:
      000085                         82 	.ds 3
      000088                         83 _g_title:
      000088                         84 	.ds 32
      0000A8                         85 _g_author:
      0000A8                         86 	.ds 32
      0000C8                         87 _lev:
      0000C8                         88 	.ds 768
      0003C8                         89 _mov:
      0003C8                         90 	.ds 768
      0006C8                         91 _bak:
      0006C8                         92 	.ds 768
      0009C8                         93 _chkpt:
      0009C8                         94 	.ds 768
      000CC8                         95 _undo_buf:
      000CC8                         96 	.ds 2304
      0015C8                         97 _undo_count:
      0015C8                         98 	.ds 1
      0015C9                         99 _undo_head:
      0015C9                        100 	.ds 1
      0015CA                        101 _g_w:
      0015CA                        102 	.ds 1
      0015CB                        103 _g_h:
      0015CB                        104 	.ds 1
      0015CC                        105 _g_ncells:
      0015CC                        106 	.ds 1
      0015CD                        107 _g_level_idx:
      0015CD                        108 	.ds 1
      0015CE                        109 _turn_cmd:
      0015CE                        110 	.ds 1
      0015CF                        111 _turn_msg:
      0015CF                        112 	.ds 1
      0015D0                        113 _pre_player:
      0015D0                        114 	.ds 24
      0015E8                        115 _rule_dx:
      0015E8                        116 	.ds 1
      0015E9                        117 _rule_dy:
      0015E9                        118 	.ds 1
      0015EA                        119 _rule_d:
      0015EA                        120 	.ds 2
      0015EC                        121 _rule_rowCount:
      0015EC                        122 	.ds 1
      0015ED                        123 _rule_hasRepl:
      0015ED                        124 	.ds 1
      0015EE                        125 _rule_rows:
      0015EE                        126 	.ds 12
      0015FA                        127 _rule_rowLen:
      0015FA                        128 	.ds 6
      001600                        129 _rule_pos:
      001600                        130 	.ds 6
      001606                        131 _rule_matched:
      001606                        132 	.ds 1
      001607                        133 _rule_changed:
      001607                        134 	.ds 1
      001608                        135 _msg_ptr:
      001608                        136 	.ds 2
      00160A                        137 _combo_key:
      00160A                        138 	.ds 348
      001766                        139 _combo_count:
      001766                        140 	.ds 1
      001767                        141 _cell_combo:
      001767                        142 	.ds 192
      001827                        143 _off_x:
      001827                        144 	.ds 1
      001828                        145 _off_y:
      001828                        146 	.ds 1
      001829                        147 _compose_buf:
      001829                        148 	.ds 128
      0018A9                        149 _frame_count:
      0018A9                        150 	.ds 1
      0018AA                        151 _poll_input_held_prev_65536_270:
      0018AA                        152 	.ds 2
      0018AC                        153 _poll_input_rep_timer_65536_270:
      0018AC                        154 	.ds 1
      0018AD                        155 _poll_input_hold2_65536_270:
      0018AD                        156 	.ds 1
                                    157 ;--------------------------------------------------------
                                    158 ; ram data
                                    159 ;--------------------------------------------------------
                                    160 	.area _INITIALIZED
      000000                        161 _rng_state:
      000000                        162 	.ds 2
                                    163 ;--------------------------------------------------------
                                    164 ; absolute external ram data
                                    165 ;--------------------------------------------------------
                                    166 	.area _DABS (ABS)
                                    167 ;--------------------------------------------------------
                                    168 ; global & static initialisations
                                    169 ;--------------------------------------------------------
                                    170 	.area _HOME
                                    171 	.area _GSINIT
                                    172 	.area _GSFINAL
                                    173 	.area _GSINIT
                                    174 ;--------------------------------------------------------
                                    175 ; Home
                                    176 ;--------------------------------------------------------
                                    177 	.area _HOME
                                    178 	.area _HOME
                                    179 ;--------------------------------------------------------
                                    180 ; code
                                    181 ;--------------------------------------------------------
                                    182 	.area _CODE
                                    183 ;ps_engine.c:74: static u8 *map_bank(u8 rel_bank) {
                                    184 ;	---------------------------------
                                    185 ; Function map_bank
                                    186 ; ---------------------------------
      000000                        187 _map_bank:
                                    188 ;ps_engine.c:75: SMS_mapROMBank(GAME_BANK + rel_bank);
      000000 C6 02            [ 7]  189 	add	a, #0x02
      000002 32 FF FF         [13]  190 	ld	(_ROM_bank_to_be_mapped_on_slot2+0), a
                                    191 ;ps_engine.c:76: return (u8 *)0x8000;
      000005 11 00 80         [10]  192 	ld	de, #0x8000
                                    193 ;ps_engine.c:77: }
      000008 C9               [10]  194 	ret
      000009                        195 _ps_font:
      000009 00                     196 	.db #0x00	; 0
      00000A 00                     197 	.db #0x00	; 0
      00000B 00                     198 	.db #0x00	; 0
      00000C 00                     199 	.db #0x00	; 0
      00000D 00                     200 	.db #0x00	; 0
      00000E 00                     201 	.db #0x00	; 0
      00000F 00                     202 	.db #0x00	; 0
      000010 00                     203 	.db #0x00	; 0
      000011 18                     204 	.db #0x18	; 24
      000012 18                     205 	.db #0x18	; 24
      000013 18                     206 	.db #0x18	; 24
      000014 18                     207 	.db #0x18	; 24
      000015 18                     208 	.db #0x18	; 24
      000016 00                     209 	.db #0x00	; 0
      000017 18                     210 	.db #0x18	; 24
      000018 00                     211 	.db #0x00	; 0
      000019 6C                     212 	.db #0x6c	; 108	'l'
      00001A 6C                     213 	.db #0x6c	; 108	'l'
      00001B 6C                     214 	.db #0x6c	; 108	'l'
      00001C 00                     215 	.db #0x00	; 0
      00001D 00                     216 	.db #0x00	; 0
      00001E 00                     217 	.db #0x00	; 0
      00001F 00                     218 	.db #0x00	; 0
      000020 00                     219 	.db #0x00	; 0
      000021 36                     220 	.db #0x36	; 54	'6'
      000022 36                     221 	.db #0x36	; 54	'6'
      000023 7F                     222 	.db #0x7f	; 127
      000024 36                     223 	.db #0x36	; 54	'6'
      000025 7F                     224 	.db #0x7f	; 127
      000026 36                     225 	.db #0x36	; 54	'6'
      000027 36                     226 	.db #0x36	; 54	'6'
      000028 00                     227 	.db #0x00	; 0
      000029 0C                     228 	.db #0x0c	; 12
      00002A 3F                     229 	.db #0x3f	; 63
      00002B 68                     230 	.db #0x68	; 104	'h'
      00002C 3E                     231 	.db #0x3e	; 62
      00002D 0B                     232 	.db #0x0b	; 11
      00002E 7E                     233 	.db #0x7e	; 126
      00002F 18                     234 	.db #0x18	; 24
      000030 00                     235 	.db #0x00	; 0
      000031 60                     236 	.db #0x60	; 96
      000032 66                     237 	.db #0x66	; 102	'f'
      000033 0C                     238 	.db #0x0c	; 12
      000034 18                     239 	.db #0x18	; 24
      000035 30                     240 	.db #0x30	; 48	'0'
      000036 66                     241 	.db #0x66	; 102	'f'
      000037 06                     242 	.db #0x06	; 6
      000038 00                     243 	.db #0x00	; 0
      000039 38                     244 	.db #0x38	; 56	'8'
      00003A 6C                     245 	.db #0x6c	; 108	'l'
      00003B 6C                     246 	.db #0x6c	; 108	'l'
      00003C 38                     247 	.db #0x38	; 56	'8'
      00003D 6D                     248 	.db #0x6d	; 109	'm'
      00003E 66                     249 	.db #0x66	; 102	'f'
      00003F 3B                     250 	.db #0x3b	; 59
      000040 00                     251 	.db #0x00	; 0
      000041 18                     252 	.db #0x18	; 24
      000042 18                     253 	.db #0x18	; 24
      000043 18                     254 	.db #0x18	; 24
      000044 00                     255 	.db #0x00	; 0
      000045 00                     256 	.db #0x00	; 0
      000046 00                     257 	.db #0x00	; 0
      000047 00                     258 	.db #0x00	; 0
      000048 00                     259 	.db #0x00	; 0
      000049 0C                     260 	.db #0x0c	; 12
      00004A 18                     261 	.db #0x18	; 24
      00004B 30                     262 	.db #0x30	; 48	'0'
      00004C 30                     263 	.db #0x30	; 48	'0'
      00004D 30                     264 	.db #0x30	; 48	'0'
      00004E 18                     265 	.db #0x18	; 24
      00004F 0C                     266 	.db #0x0c	; 12
      000050 00                     267 	.db #0x00	; 0
      000051 30                     268 	.db #0x30	; 48	'0'
      000052 18                     269 	.db #0x18	; 24
      000053 0C                     270 	.db #0x0c	; 12
      000054 0C                     271 	.db #0x0c	; 12
      000055 0C                     272 	.db #0x0c	; 12
      000056 18                     273 	.db #0x18	; 24
      000057 30                     274 	.db #0x30	; 48	'0'
      000058 00                     275 	.db #0x00	; 0
      000059 00                     276 	.db #0x00	; 0
      00005A 18                     277 	.db #0x18	; 24
      00005B 7E                     278 	.db #0x7e	; 126
      00005C 3C                     279 	.db #0x3c	; 60
      00005D 7E                     280 	.db #0x7e	; 126
      00005E 18                     281 	.db #0x18	; 24
      00005F 00                     282 	.db #0x00	; 0
      000060 00                     283 	.db #0x00	; 0
      000061 00                     284 	.db #0x00	; 0
      000062 18                     285 	.db #0x18	; 24
      000063 18                     286 	.db #0x18	; 24
      000064 7E                     287 	.db #0x7e	; 126
      000065 18                     288 	.db #0x18	; 24
      000066 18                     289 	.db #0x18	; 24
      000067 00                     290 	.db #0x00	; 0
      000068 00                     291 	.db #0x00	; 0
      000069 00                     292 	.db #0x00	; 0
      00006A 00                     293 	.db #0x00	; 0
      00006B 00                     294 	.db #0x00	; 0
      00006C 00                     295 	.db #0x00	; 0
      00006D 00                     296 	.db #0x00	; 0
      00006E 18                     297 	.db #0x18	; 24
      00006F 18                     298 	.db #0x18	; 24
      000070 30                     299 	.db #0x30	; 48	'0'
      000071 00                     300 	.db #0x00	; 0
      000072 00                     301 	.db #0x00	; 0
      000073 00                     302 	.db #0x00	; 0
      000074 7E                     303 	.db #0x7e	; 126
      000075 00                     304 	.db #0x00	; 0
      000076 00                     305 	.db #0x00	; 0
      000077 00                     306 	.db #0x00	; 0
      000078 00                     307 	.db #0x00	; 0
      000079 00                     308 	.db #0x00	; 0
      00007A 00                     309 	.db #0x00	; 0
      00007B 00                     310 	.db #0x00	; 0
      00007C 00                     311 	.db #0x00	; 0
      00007D 00                     312 	.db #0x00	; 0
      00007E 18                     313 	.db #0x18	; 24
      00007F 18                     314 	.db #0x18	; 24
      000080 00                     315 	.db #0x00	; 0
      000081 00                     316 	.db #0x00	; 0
      000082 06                     317 	.db #0x06	; 6
      000083 0C                     318 	.db #0x0c	; 12
      000084 18                     319 	.db #0x18	; 24
      000085 30                     320 	.db #0x30	; 48	'0'
      000086 60                     321 	.db #0x60	; 96
      000087 00                     322 	.db #0x00	; 0
      000088 00                     323 	.db #0x00	; 0
      000089 3C                     324 	.db #0x3c	; 60
      00008A 66                     325 	.db #0x66	; 102	'f'
      00008B 6E                     326 	.db #0x6e	; 110	'n'
      00008C 7E                     327 	.db #0x7e	; 126
      00008D 76                     328 	.db #0x76	; 118	'v'
      00008E 66                     329 	.db #0x66	; 102	'f'
      00008F 3C                     330 	.db #0x3c	; 60
      000090 00                     331 	.db #0x00	; 0
      000091 18                     332 	.db #0x18	; 24
      000092 38                     333 	.db #0x38	; 56	'8'
      000093 18                     334 	.db #0x18	; 24
      000094 18                     335 	.db #0x18	; 24
      000095 18                     336 	.db #0x18	; 24
      000096 18                     337 	.db #0x18	; 24
      000097 7E                     338 	.db #0x7e	; 126
      000098 00                     339 	.db #0x00	; 0
      000099 3C                     340 	.db #0x3c	; 60
      00009A 66                     341 	.db #0x66	; 102	'f'
      00009B 06                     342 	.db #0x06	; 6
      00009C 0C                     343 	.db #0x0c	; 12
      00009D 18                     344 	.db #0x18	; 24
      00009E 30                     345 	.db #0x30	; 48	'0'
      00009F 7E                     346 	.db #0x7e	; 126
      0000A0 00                     347 	.db #0x00	; 0
      0000A1 3C                     348 	.db #0x3c	; 60
      0000A2 66                     349 	.db #0x66	; 102	'f'
      0000A3 06                     350 	.db #0x06	; 6
      0000A4 1C                     351 	.db #0x1c	; 28
      0000A5 06                     352 	.db #0x06	; 6
      0000A6 66                     353 	.db #0x66	; 102	'f'
      0000A7 3C                     354 	.db #0x3c	; 60
      0000A8 00                     355 	.db #0x00	; 0
      0000A9 0C                     356 	.db #0x0c	; 12
      0000AA 1C                     357 	.db #0x1c	; 28
      0000AB 3C                     358 	.db #0x3c	; 60
      0000AC 6C                     359 	.db #0x6c	; 108	'l'
      0000AD 7E                     360 	.db #0x7e	; 126
      0000AE 0C                     361 	.db #0x0c	; 12
      0000AF 0C                     362 	.db #0x0c	; 12
      0000B0 00                     363 	.db #0x00	; 0
      0000B1 7E                     364 	.db #0x7e	; 126
      0000B2 60                     365 	.db #0x60	; 96
      0000B3 7C                     366 	.db #0x7c	; 124
      0000B4 06                     367 	.db #0x06	; 6
      0000B5 06                     368 	.db #0x06	; 6
      0000B6 66                     369 	.db #0x66	; 102	'f'
      0000B7 3C                     370 	.db #0x3c	; 60
      0000B8 00                     371 	.db #0x00	; 0
      0000B9 1C                     372 	.db #0x1c	; 28
      0000BA 30                     373 	.db #0x30	; 48	'0'
      0000BB 60                     374 	.db #0x60	; 96
      0000BC 7C                     375 	.db #0x7c	; 124
      0000BD 66                     376 	.db #0x66	; 102	'f'
      0000BE 66                     377 	.db #0x66	; 102	'f'
      0000BF 3C                     378 	.db #0x3c	; 60
      0000C0 00                     379 	.db #0x00	; 0
      0000C1 7E                     380 	.db #0x7e	; 126
      0000C2 06                     381 	.db #0x06	; 6
      0000C3 0C                     382 	.db #0x0c	; 12
      0000C4 18                     383 	.db #0x18	; 24
      0000C5 30                     384 	.db #0x30	; 48	'0'
      0000C6 30                     385 	.db #0x30	; 48	'0'
      0000C7 30                     386 	.db #0x30	; 48	'0'
      0000C8 00                     387 	.db #0x00	; 0
      0000C9 3C                     388 	.db #0x3c	; 60
      0000CA 66                     389 	.db #0x66	; 102	'f'
      0000CB 66                     390 	.db #0x66	; 102	'f'
      0000CC 3C                     391 	.db #0x3c	; 60
      0000CD 66                     392 	.db #0x66	; 102	'f'
      0000CE 66                     393 	.db #0x66	; 102	'f'
      0000CF 3C                     394 	.db #0x3c	; 60
      0000D0 00                     395 	.db #0x00	; 0
      0000D1 3C                     396 	.db #0x3c	; 60
      0000D2 66                     397 	.db #0x66	; 102	'f'
      0000D3 66                     398 	.db #0x66	; 102	'f'
      0000D4 3E                     399 	.db #0x3e	; 62
      0000D5 06                     400 	.db #0x06	; 6
      0000D6 0C                     401 	.db #0x0c	; 12
      0000D7 38                     402 	.db #0x38	; 56	'8'
      0000D8 00                     403 	.db #0x00	; 0
      0000D9 00                     404 	.db #0x00	; 0
      0000DA 00                     405 	.db #0x00	; 0
      0000DB 18                     406 	.db #0x18	; 24
      0000DC 18                     407 	.db #0x18	; 24
      0000DD 00                     408 	.db #0x00	; 0
      0000DE 18                     409 	.db #0x18	; 24
      0000DF 18                     410 	.db #0x18	; 24
      0000E0 00                     411 	.db #0x00	; 0
      0000E1 00                     412 	.db #0x00	; 0
      0000E2 00                     413 	.db #0x00	; 0
      0000E3 18                     414 	.db #0x18	; 24
      0000E4 18                     415 	.db #0x18	; 24
      0000E5 00                     416 	.db #0x00	; 0
      0000E6 18                     417 	.db #0x18	; 24
      0000E7 18                     418 	.db #0x18	; 24
      0000E8 30                     419 	.db #0x30	; 48	'0'
      0000E9 0C                     420 	.db #0x0c	; 12
      0000EA 18                     421 	.db #0x18	; 24
      0000EB 30                     422 	.db #0x30	; 48	'0'
      0000EC 60                     423 	.db #0x60	; 96
      0000ED 30                     424 	.db #0x30	; 48	'0'
      0000EE 18                     425 	.db #0x18	; 24
      0000EF 0C                     426 	.db #0x0c	; 12
      0000F0 00                     427 	.db #0x00	; 0
      0000F1 00                     428 	.db #0x00	; 0
      0000F2 00                     429 	.db #0x00	; 0
      0000F3 7E                     430 	.db #0x7e	; 126
      0000F4 00                     431 	.db #0x00	; 0
      0000F5 7E                     432 	.db #0x7e	; 126
      0000F6 00                     433 	.db #0x00	; 0
      0000F7 00                     434 	.db #0x00	; 0
      0000F8 00                     435 	.db #0x00	; 0
      0000F9 30                     436 	.db #0x30	; 48	'0'
      0000FA 18                     437 	.db #0x18	; 24
      0000FB 0C                     438 	.db #0x0c	; 12
      0000FC 06                     439 	.db #0x06	; 6
      0000FD 0C                     440 	.db #0x0c	; 12
      0000FE 18                     441 	.db #0x18	; 24
      0000FF 30                     442 	.db #0x30	; 48	'0'
      000100 00                     443 	.db #0x00	; 0
      000101 3C                     444 	.db #0x3c	; 60
      000102 66                     445 	.db #0x66	; 102	'f'
      000103 0C                     446 	.db #0x0c	; 12
      000104 18                     447 	.db #0x18	; 24
      000105 18                     448 	.db #0x18	; 24
      000106 00                     449 	.db #0x00	; 0
      000107 18                     450 	.db #0x18	; 24
      000108 00                     451 	.db #0x00	; 0
      000109 3C                     452 	.db #0x3c	; 60
      00010A 66                     453 	.db #0x66	; 102	'f'
      00010B 6E                     454 	.db #0x6e	; 110	'n'
      00010C 6A                     455 	.db #0x6a	; 106	'j'
      00010D 6E                     456 	.db #0x6e	; 110	'n'
      00010E 60                     457 	.db #0x60	; 96
      00010F 3C                     458 	.db #0x3c	; 60
      000110 00                     459 	.db #0x00	; 0
      000111 3C                     460 	.db #0x3c	; 60
      000112 66                     461 	.db #0x66	; 102	'f'
      000113 66                     462 	.db #0x66	; 102	'f'
      000114 7E                     463 	.db #0x7e	; 126
      000115 66                     464 	.db #0x66	; 102	'f'
      000116 66                     465 	.db #0x66	; 102	'f'
      000117 66                     466 	.db #0x66	; 102	'f'
      000118 00                     467 	.db #0x00	; 0
      000119 7C                     468 	.db #0x7c	; 124
      00011A 66                     469 	.db #0x66	; 102	'f'
      00011B 66                     470 	.db #0x66	; 102	'f'
      00011C 7C                     471 	.db #0x7c	; 124
      00011D 66                     472 	.db #0x66	; 102	'f'
      00011E 66                     473 	.db #0x66	; 102	'f'
      00011F 7C                     474 	.db #0x7c	; 124
      000120 00                     475 	.db #0x00	; 0
      000121 3C                     476 	.db #0x3c	; 60
      000122 66                     477 	.db #0x66	; 102	'f'
      000123 60                     478 	.db #0x60	; 96
      000124 60                     479 	.db #0x60	; 96
      000125 60                     480 	.db #0x60	; 96
      000126 66                     481 	.db #0x66	; 102	'f'
      000127 3C                     482 	.db #0x3c	; 60
      000128 00                     483 	.db #0x00	; 0
      000129 78                     484 	.db #0x78	; 120	'x'
      00012A 6C                     485 	.db #0x6c	; 108	'l'
      00012B 66                     486 	.db #0x66	; 102	'f'
      00012C 66                     487 	.db #0x66	; 102	'f'
      00012D 66                     488 	.db #0x66	; 102	'f'
      00012E 6C                     489 	.db #0x6c	; 108	'l'
      00012F 78                     490 	.db #0x78	; 120	'x'
      000130 00                     491 	.db #0x00	; 0
      000131 7E                     492 	.db #0x7e	; 126
      000132 60                     493 	.db #0x60	; 96
      000133 60                     494 	.db #0x60	; 96
      000134 7C                     495 	.db #0x7c	; 124
      000135 60                     496 	.db #0x60	; 96
      000136 60                     497 	.db #0x60	; 96
      000137 7E                     498 	.db #0x7e	; 126
      000138 00                     499 	.db #0x00	; 0
      000139 7E                     500 	.db #0x7e	; 126
      00013A 60                     501 	.db #0x60	; 96
      00013B 60                     502 	.db #0x60	; 96
      00013C 7C                     503 	.db #0x7c	; 124
      00013D 60                     504 	.db #0x60	; 96
      00013E 60                     505 	.db #0x60	; 96
      00013F 60                     506 	.db #0x60	; 96
      000140 00                     507 	.db #0x00	; 0
      000141 3C                     508 	.db #0x3c	; 60
      000142 66                     509 	.db #0x66	; 102	'f'
      000143 60                     510 	.db #0x60	; 96
      000144 6E                     511 	.db #0x6e	; 110	'n'
      000145 66                     512 	.db #0x66	; 102	'f'
      000146 66                     513 	.db #0x66	; 102	'f'
      000147 3C                     514 	.db #0x3c	; 60
      000148 00                     515 	.db #0x00	; 0
      000149 66                     516 	.db #0x66	; 102	'f'
      00014A 66                     517 	.db #0x66	; 102	'f'
      00014B 66                     518 	.db #0x66	; 102	'f'
      00014C 7E                     519 	.db #0x7e	; 126
      00014D 66                     520 	.db #0x66	; 102	'f'
      00014E 66                     521 	.db #0x66	; 102	'f'
      00014F 66                     522 	.db #0x66	; 102	'f'
      000150 00                     523 	.db #0x00	; 0
      000151 7E                     524 	.db #0x7e	; 126
      000152 18                     525 	.db #0x18	; 24
      000153 18                     526 	.db #0x18	; 24
      000154 18                     527 	.db #0x18	; 24
      000155 18                     528 	.db #0x18	; 24
      000156 18                     529 	.db #0x18	; 24
      000157 7E                     530 	.db #0x7e	; 126
      000158 00                     531 	.db #0x00	; 0
      000159 3E                     532 	.db #0x3e	; 62
      00015A 0C                     533 	.db #0x0c	; 12
      00015B 0C                     534 	.db #0x0c	; 12
      00015C 0C                     535 	.db #0x0c	; 12
      00015D 0C                     536 	.db #0x0c	; 12
      00015E 6C                     537 	.db #0x6c	; 108	'l'
      00015F 38                     538 	.db #0x38	; 56	'8'
      000160 00                     539 	.db #0x00	; 0
      000161 66                     540 	.db #0x66	; 102	'f'
      000162 6C                     541 	.db #0x6c	; 108	'l'
      000163 78                     542 	.db #0x78	; 120	'x'
      000164 70                     543 	.db #0x70	; 112	'p'
      000165 78                     544 	.db #0x78	; 120	'x'
      000166 6C                     545 	.db #0x6c	; 108	'l'
      000167 66                     546 	.db #0x66	; 102	'f'
      000168 00                     547 	.db #0x00	; 0
      000169 60                     548 	.db #0x60	; 96
      00016A 60                     549 	.db #0x60	; 96
      00016B 60                     550 	.db #0x60	; 96
      00016C 60                     551 	.db #0x60	; 96
      00016D 60                     552 	.db #0x60	; 96
      00016E 60                     553 	.db #0x60	; 96
      00016F 7E                     554 	.db #0x7e	; 126
      000170 00                     555 	.db #0x00	; 0
      000171 63                     556 	.db #0x63	; 99	'c'
      000172 77                     557 	.db #0x77	; 119	'w'
      000173 7F                     558 	.db #0x7f	; 127
      000174 6B                     559 	.db #0x6b	; 107	'k'
      000175 6B                     560 	.db #0x6b	; 107	'k'
      000176 63                     561 	.db #0x63	; 99	'c'
      000177 63                     562 	.db #0x63	; 99	'c'
      000178 00                     563 	.db #0x00	; 0
      000179 66                     564 	.db #0x66	; 102	'f'
      00017A 66                     565 	.db #0x66	; 102	'f'
      00017B 76                     566 	.db #0x76	; 118	'v'
      00017C 7E                     567 	.db #0x7e	; 126
      00017D 6E                     568 	.db #0x6e	; 110	'n'
      00017E 66                     569 	.db #0x66	; 102	'f'
      00017F 66                     570 	.db #0x66	; 102	'f'
      000180 00                     571 	.db #0x00	; 0
      000181 3C                     572 	.db #0x3c	; 60
      000182 66                     573 	.db #0x66	; 102	'f'
      000183 66                     574 	.db #0x66	; 102	'f'
      000184 66                     575 	.db #0x66	; 102	'f'
      000185 66                     576 	.db #0x66	; 102	'f'
      000186 66                     577 	.db #0x66	; 102	'f'
      000187 3C                     578 	.db #0x3c	; 60
      000188 00                     579 	.db #0x00	; 0
      000189 7C                     580 	.db #0x7c	; 124
      00018A 66                     581 	.db #0x66	; 102	'f'
      00018B 66                     582 	.db #0x66	; 102	'f'
      00018C 7C                     583 	.db #0x7c	; 124
      00018D 60                     584 	.db #0x60	; 96
      00018E 60                     585 	.db #0x60	; 96
      00018F 60                     586 	.db #0x60	; 96
      000190 00                     587 	.db #0x00	; 0
      000191 3C                     588 	.db #0x3c	; 60
      000192 66                     589 	.db #0x66	; 102	'f'
      000193 66                     590 	.db #0x66	; 102	'f'
      000194 66                     591 	.db #0x66	; 102	'f'
      000195 6A                     592 	.db #0x6a	; 106	'j'
      000196 6C                     593 	.db #0x6c	; 108	'l'
      000197 36                     594 	.db #0x36	; 54	'6'
      000198 00                     595 	.db #0x00	; 0
      000199 7C                     596 	.db #0x7c	; 124
      00019A 66                     597 	.db #0x66	; 102	'f'
      00019B 66                     598 	.db #0x66	; 102	'f'
      00019C 7C                     599 	.db #0x7c	; 124
      00019D 6C                     600 	.db #0x6c	; 108	'l'
      00019E 66                     601 	.db #0x66	; 102	'f'
      00019F 66                     602 	.db #0x66	; 102	'f'
      0001A0 00                     603 	.db #0x00	; 0
      0001A1 3C                     604 	.db #0x3c	; 60
      0001A2 66                     605 	.db #0x66	; 102	'f'
      0001A3 60                     606 	.db #0x60	; 96
      0001A4 3C                     607 	.db #0x3c	; 60
      0001A5 06                     608 	.db #0x06	; 6
      0001A6 66                     609 	.db #0x66	; 102	'f'
      0001A7 3C                     610 	.db #0x3c	; 60
      0001A8 00                     611 	.db #0x00	; 0
      0001A9 7E                     612 	.db #0x7e	; 126
      0001AA 18                     613 	.db #0x18	; 24
      0001AB 18                     614 	.db #0x18	; 24
      0001AC 18                     615 	.db #0x18	; 24
      0001AD 18                     616 	.db #0x18	; 24
      0001AE 18                     617 	.db #0x18	; 24
      0001AF 18                     618 	.db #0x18	; 24
      0001B0 00                     619 	.db #0x00	; 0
      0001B1 66                     620 	.db #0x66	; 102	'f'
      0001B2 66                     621 	.db #0x66	; 102	'f'
      0001B3 66                     622 	.db #0x66	; 102	'f'
      0001B4 66                     623 	.db #0x66	; 102	'f'
      0001B5 66                     624 	.db #0x66	; 102	'f'
      0001B6 66                     625 	.db #0x66	; 102	'f'
      0001B7 3C                     626 	.db #0x3c	; 60
      0001B8 00                     627 	.db #0x00	; 0
      0001B9 66                     628 	.db #0x66	; 102	'f'
      0001BA 66                     629 	.db #0x66	; 102	'f'
      0001BB 66                     630 	.db #0x66	; 102	'f'
      0001BC 66                     631 	.db #0x66	; 102	'f'
      0001BD 66                     632 	.db #0x66	; 102	'f'
      0001BE 3C                     633 	.db #0x3c	; 60
      0001BF 18                     634 	.db #0x18	; 24
      0001C0 00                     635 	.db #0x00	; 0
      0001C1 63                     636 	.db #0x63	; 99	'c'
      0001C2 63                     637 	.db #0x63	; 99	'c'
      0001C3 6B                     638 	.db #0x6b	; 107	'k'
      0001C4 6B                     639 	.db #0x6b	; 107	'k'
      0001C5 7F                     640 	.db #0x7f	; 127
      0001C6 77                     641 	.db #0x77	; 119	'w'
      0001C7 63                     642 	.db #0x63	; 99	'c'
      0001C8 00                     643 	.db #0x00	; 0
      0001C9 66                     644 	.db #0x66	; 102	'f'
      0001CA 66                     645 	.db #0x66	; 102	'f'
      0001CB 3C                     646 	.db #0x3c	; 60
      0001CC 18                     647 	.db #0x18	; 24
      0001CD 3C                     648 	.db #0x3c	; 60
      0001CE 66                     649 	.db #0x66	; 102	'f'
      0001CF 66                     650 	.db #0x66	; 102	'f'
      0001D0 00                     651 	.db #0x00	; 0
      0001D1 66                     652 	.db #0x66	; 102	'f'
      0001D2 66                     653 	.db #0x66	; 102	'f'
      0001D3 66                     654 	.db #0x66	; 102	'f'
      0001D4 3C                     655 	.db #0x3c	; 60
      0001D5 18                     656 	.db #0x18	; 24
      0001D6 18                     657 	.db #0x18	; 24
      0001D7 18                     658 	.db #0x18	; 24
      0001D8 00                     659 	.db #0x00	; 0
      0001D9 7E                     660 	.db #0x7e	; 126
      0001DA 06                     661 	.db #0x06	; 6
      0001DB 0C                     662 	.db #0x0c	; 12
      0001DC 18                     663 	.db #0x18	; 24
      0001DD 30                     664 	.db #0x30	; 48	'0'
      0001DE 60                     665 	.db #0x60	; 96
      0001DF 7E                     666 	.db #0x7e	; 126
      0001E0 00                     667 	.db #0x00	; 0
      0001E1 7C                     668 	.db #0x7c	; 124
      0001E2 60                     669 	.db #0x60	; 96
      0001E3 60                     670 	.db #0x60	; 96
      0001E4 60                     671 	.db #0x60	; 96
      0001E5 60                     672 	.db #0x60	; 96
      0001E6 60                     673 	.db #0x60	; 96
      0001E7 7C                     674 	.db #0x7c	; 124
      0001E8 00                     675 	.db #0x00	; 0
      0001E9 00                     676 	.db #0x00	; 0
      0001EA 60                     677 	.db #0x60	; 96
      0001EB 30                     678 	.db #0x30	; 48	'0'
      0001EC 18                     679 	.db #0x18	; 24
      0001ED 0C                     680 	.db #0x0c	; 12
      0001EE 06                     681 	.db #0x06	; 6
      0001EF 00                     682 	.db #0x00	; 0
      0001F0 00                     683 	.db #0x00	; 0
      0001F1 3E                     684 	.db #0x3e	; 62
      0001F2 06                     685 	.db #0x06	; 6
      0001F3 06                     686 	.db #0x06	; 6
      0001F4 06                     687 	.db #0x06	; 6
      0001F5 06                     688 	.db #0x06	; 6
      0001F6 06                     689 	.db #0x06	; 6
      0001F7 3E                     690 	.db #0x3e	; 62
      0001F8 00                     691 	.db #0x00	; 0
      0001F9 3C                     692 	.db #0x3c	; 60
      0001FA 66                     693 	.db #0x66	; 102	'f'
      0001FB 00                     694 	.db #0x00	; 0
      0001FC 00                     695 	.db #0x00	; 0
      0001FD 00                     696 	.db #0x00	; 0
      0001FE 00                     697 	.db #0x00	; 0
      0001FF 00                     698 	.db #0x00	; 0
      000200 00                     699 	.db #0x00	; 0
      000201 00                     700 	.db #0x00	; 0
      000202 00                     701 	.db #0x00	; 0
      000203 00                     702 	.db #0x00	; 0
      000204 00                     703 	.db #0x00	; 0
      000205 00                     704 	.db #0x00	; 0
      000206 00                     705 	.db #0x00	; 0
      000207 00                     706 	.db #0x00	; 0
      000208 FF                     707 	.db #0xff	; 255
      000209 30                     708 	.db #0x30	; 48	'0'
      00020A 18                     709 	.db #0x18	; 24
      00020B 00                     710 	.db #0x00	; 0
      00020C 00                     711 	.db #0x00	; 0
      00020D 00                     712 	.db #0x00	; 0
      00020E 00                     713 	.db #0x00	; 0
      00020F 00                     714 	.db #0x00	; 0
      000210 00                     715 	.db #0x00	; 0
      000211 00                     716 	.db #0x00	; 0
      000212 00                     717 	.db #0x00	; 0
      000213 3C                     718 	.db #0x3c	; 60
      000214 06                     719 	.db #0x06	; 6
      000215 3E                     720 	.db #0x3e	; 62
      000216 66                     721 	.db #0x66	; 102	'f'
      000217 3E                     722 	.db #0x3e	; 62
      000218 00                     723 	.db #0x00	; 0
      000219 60                     724 	.db #0x60	; 96
      00021A 60                     725 	.db #0x60	; 96
      00021B 7C                     726 	.db #0x7c	; 124
      00021C 66                     727 	.db #0x66	; 102	'f'
      00021D 66                     728 	.db #0x66	; 102	'f'
      00021E 66                     729 	.db #0x66	; 102	'f'
      00021F 7C                     730 	.db #0x7c	; 124
      000220 00                     731 	.db #0x00	; 0
      000221 00                     732 	.db #0x00	; 0
      000222 00                     733 	.db #0x00	; 0
      000223 3C                     734 	.db #0x3c	; 60
      000224 66                     735 	.db #0x66	; 102	'f'
      000225 60                     736 	.db #0x60	; 96
      000226 66                     737 	.db #0x66	; 102	'f'
      000227 3C                     738 	.db #0x3c	; 60
      000228 00                     739 	.db #0x00	; 0
      000229 06                     740 	.db #0x06	; 6
      00022A 06                     741 	.db #0x06	; 6
      00022B 3E                     742 	.db #0x3e	; 62
      00022C 66                     743 	.db #0x66	; 102	'f'
      00022D 66                     744 	.db #0x66	; 102	'f'
      00022E 66                     745 	.db #0x66	; 102	'f'
      00022F 3E                     746 	.db #0x3e	; 62
      000230 00                     747 	.db #0x00	; 0
      000231 00                     748 	.db #0x00	; 0
      000232 00                     749 	.db #0x00	; 0
      000233 3C                     750 	.db #0x3c	; 60
      000234 66                     751 	.db #0x66	; 102	'f'
      000235 7E                     752 	.db #0x7e	; 126
      000236 60                     753 	.db #0x60	; 96
      000237 3C                     754 	.db #0x3c	; 60
      000238 00                     755 	.db #0x00	; 0
      000239 1C                     756 	.db #0x1c	; 28
      00023A 30                     757 	.db #0x30	; 48	'0'
      00023B 30                     758 	.db #0x30	; 48	'0'
      00023C 7C                     759 	.db #0x7c	; 124
      00023D 30                     760 	.db #0x30	; 48	'0'
      00023E 30                     761 	.db #0x30	; 48	'0'
      00023F 30                     762 	.db #0x30	; 48	'0'
      000240 00                     763 	.db #0x00	; 0
      000241 00                     764 	.db #0x00	; 0
      000242 00                     765 	.db #0x00	; 0
      000243 3E                     766 	.db #0x3e	; 62
      000244 66                     767 	.db #0x66	; 102	'f'
      000245 66                     768 	.db #0x66	; 102	'f'
      000246 3E                     769 	.db #0x3e	; 62
      000247 06                     770 	.db #0x06	; 6
      000248 3C                     771 	.db #0x3c	; 60
      000249 60                     772 	.db #0x60	; 96
      00024A 60                     773 	.db #0x60	; 96
      00024B 7C                     774 	.db #0x7c	; 124
      00024C 66                     775 	.db #0x66	; 102	'f'
      00024D 66                     776 	.db #0x66	; 102	'f'
      00024E 66                     777 	.db #0x66	; 102	'f'
      00024F 66                     778 	.db #0x66	; 102	'f'
      000250 00                     779 	.db #0x00	; 0
      000251 18                     780 	.db #0x18	; 24
      000252 00                     781 	.db #0x00	; 0
      000253 38                     782 	.db #0x38	; 56	'8'
      000254 18                     783 	.db #0x18	; 24
      000255 18                     784 	.db #0x18	; 24
      000256 18                     785 	.db #0x18	; 24
      000257 3C                     786 	.db #0x3c	; 60
      000258 00                     787 	.db #0x00	; 0
      000259 18                     788 	.db #0x18	; 24
      00025A 00                     789 	.db #0x00	; 0
      00025B 38                     790 	.db #0x38	; 56	'8'
      00025C 18                     791 	.db #0x18	; 24
      00025D 18                     792 	.db #0x18	; 24
      00025E 18                     793 	.db #0x18	; 24
      00025F 18                     794 	.db #0x18	; 24
      000260 70                     795 	.db #0x70	; 112	'p'
      000261 60                     796 	.db #0x60	; 96
      000262 60                     797 	.db #0x60	; 96
      000263 66                     798 	.db #0x66	; 102	'f'
      000264 6C                     799 	.db #0x6c	; 108	'l'
      000265 78                     800 	.db #0x78	; 120	'x'
      000266 6C                     801 	.db #0x6c	; 108	'l'
      000267 66                     802 	.db #0x66	; 102	'f'
      000268 00                     803 	.db #0x00	; 0
      000269 38                     804 	.db #0x38	; 56	'8'
      00026A 18                     805 	.db #0x18	; 24
      00026B 18                     806 	.db #0x18	; 24
      00026C 18                     807 	.db #0x18	; 24
      00026D 18                     808 	.db #0x18	; 24
      00026E 18                     809 	.db #0x18	; 24
      00026F 3C                     810 	.db #0x3c	; 60
      000270 00                     811 	.db #0x00	; 0
      000271 00                     812 	.db #0x00	; 0
      000272 00                     813 	.db #0x00	; 0
      000273 36                     814 	.db #0x36	; 54	'6'
      000274 7F                     815 	.db #0x7f	; 127
      000275 6B                     816 	.db #0x6b	; 107	'k'
      000276 6B                     817 	.db #0x6b	; 107	'k'
      000277 63                     818 	.db #0x63	; 99	'c'
      000278 00                     819 	.db #0x00	; 0
      000279 00                     820 	.db #0x00	; 0
      00027A 00                     821 	.db #0x00	; 0
      00027B 7C                     822 	.db #0x7c	; 124
      00027C 66                     823 	.db #0x66	; 102	'f'
      00027D 66                     824 	.db #0x66	; 102	'f'
      00027E 66                     825 	.db #0x66	; 102	'f'
      00027F 66                     826 	.db #0x66	; 102	'f'
      000280 00                     827 	.db #0x00	; 0
      000281 00                     828 	.db #0x00	; 0
      000282 00                     829 	.db #0x00	; 0
      000283 3C                     830 	.db #0x3c	; 60
      000284 66                     831 	.db #0x66	; 102	'f'
      000285 66                     832 	.db #0x66	; 102	'f'
      000286 66                     833 	.db #0x66	; 102	'f'
      000287 3C                     834 	.db #0x3c	; 60
      000288 00                     835 	.db #0x00	; 0
      000289 00                     836 	.db #0x00	; 0
      00028A 00                     837 	.db #0x00	; 0
      00028B 7C                     838 	.db #0x7c	; 124
      00028C 66                     839 	.db #0x66	; 102	'f'
      00028D 66                     840 	.db #0x66	; 102	'f'
      00028E 7C                     841 	.db #0x7c	; 124
      00028F 60                     842 	.db #0x60	; 96
      000290 60                     843 	.db #0x60	; 96
      000291 00                     844 	.db #0x00	; 0
      000292 00                     845 	.db #0x00	; 0
      000293 3E                     846 	.db #0x3e	; 62
      000294 66                     847 	.db #0x66	; 102	'f'
      000295 66                     848 	.db #0x66	; 102	'f'
      000296 3E                     849 	.db #0x3e	; 62
      000297 06                     850 	.db #0x06	; 6
      000298 07                     851 	.db #0x07	; 7
      000299 00                     852 	.db #0x00	; 0
      00029A 00                     853 	.db #0x00	; 0
      00029B 6C                     854 	.db #0x6c	; 108	'l'
      00029C 76                     855 	.db #0x76	; 118	'v'
      00029D 60                     856 	.db #0x60	; 96
      00029E 60                     857 	.db #0x60	; 96
      00029F 60                     858 	.db #0x60	; 96
      0002A0 00                     859 	.db #0x00	; 0
      0002A1 00                     860 	.db #0x00	; 0
      0002A2 00                     861 	.db #0x00	; 0
      0002A3 3E                     862 	.db #0x3e	; 62
      0002A4 60                     863 	.db #0x60	; 96
      0002A5 3C                     864 	.db #0x3c	; 60
      0002A6 06                     865 	.db #0x06	; 6
      0002A7 7C                     866 	.db #0x7c	; 124
      0002A8 00                     867 	.db #0x00	; 0
      0002A9 30                     868 	.db #0x30	; 48	'0'
      0002AA 30                     869 	.db #0x30	; 48	'0'
      0002AB 7C                     870 	.db #0x7c	; 124
      0002AC 30                     871 	.db #0x30	; 48	'0'
      0002AD 30                     872 	.db #0x30	; 48	'0'
      0002AE 30                     873 	.db #0x30	; 48	'0'
      0002AF 1C                     874 	.db #0x1c	; 28
      0002B0 00                     875 	.db #0x00	; 0
      0002B1 00                     876 	.db #0x00	; 0
      0002B2 00                     877 	.db #0x00	; 0
      0002B3 66                     878 	.db #0x66	; 102	'f'
      0002B4 66                     879 	.db #0x66	; 102	'f'
      0002B5 66                     880 	.db #0x66	; 102	'f'
      0002B6 66                     881 	.db #0x66	; 102	'f'
      0002B7 3E                     882 	.db #0x3e	; 62
      0002B8 00                     883 	.db #0x00	; 0
      0002B9 00                     884 	.db #0x00	; 0
      0002BA 00                     885 	.db #0x00	; 0
      0002BB 66                     886 	.db #0x66	; 102	'f'
      0002BC 66                     887 	.db #0x66	; 102	'f'
      0002BD 66                     888 	.db #0x66	; 102	'f'
      0002BE 3C                     889 	.db #0x3c	; 60
      0002BF 18                     890 	.db #0x18	; 24
      0002C0 00                     891 	.db #0x00	; 0
      0002C1 00                     892 	.db #0x00	; 0
      0002C2 00                     893 	.db #0x00	; 0
      0002C3 63                     894 	.db #0x63	; 99	'c'
      0002C4 6B                     895 	.db #0x6b	; 107	'k'
      0002C5 6B                     896 	.db #0x6b	; 107	'k'
      0002C6 7F                     897 	.db #0x7f	; 127
      0002C7 36                     898 	.db #0x36	; 54	'6'
      0002C8 00                     899 	.db #0x00	; 0
      0002C9 00                     900 	.db #0x00	; 0
      0002CA 00                     901 	.db #0x00	; 0
      0002CB 66                     902 	.db #0x66	; 102	'f'
      0002CC 3C                     903 	.db #0x3c	; 60
      0002CD 18                     904 	.db #0x18	; 24
      0002CE 3C                     905 	.db #0x3c	; 60
      0002CF 66                     906 	.db #0x66	; 102	'f'
      0002D0 00                     907 	.db #0x00	; 0
      0002D1 00                     908 	.db #0x00	; 0
      0002D2 00                     909 	.db #0x00	; 0
      0002D3 66                     910 	.db #0x66	; 102	'f'
      0002D4 66                     911 	.db #0x66	; 102	'f'
      0002D5 66                     912 	.db #0x66	; 102	'f'
      0002D6 3E                     913 	.db #0x3e	; 62
      0002D7 06                     914 	.db #0x06	; 6
      0002D8 3C                     915 	.db #0x3c	; 60
      0002D9 00                     916 	.db #0x00	; 0
      0002DA 00                     917 	.db #0x00	; 0
      0002DB 7E                     918 	.db #0x7e	; 126
      0002DC 0C                     919 	.db #0x0c	; 12
      0002DD 18                     920 	.db #0x18	; 24
      0002DE 30                     921 	.db #0x30	; 48	'0'
      0002DF 7E                     922 	.db #0x7e	; 126
      0002E0 00                     923 	.db #0x00	; 0
      0002E1 0C                     924 	.db #0x0c	; 12
      0002E2 18                     925 	.db #0x18	; 24
      0002E3 18                     926 	.db #0x18	; 24
      0002E4 70                     927 	.db #0x70	; 112	'p'
      0002E5 18                     928 	.db #0x18	; 24
      0002E6 18                     929 	.db #0x18	; 24
      0002E7 0C                     930 	.db #0x0c	; 12
      0002E8 00                     931 	.db #0x00	; 0
      0002E9 18                     932 	.db #0x18	; 24
      0002EA 18                     933 	.db #0x18	; 24
      0002EB 18                     934 	.db #0x18	; 24
      0002EC 18                     935 	.db #0x18	; 24
      0002ED 18                     936 	.db #0x18	; 24
      0002EE 18                     937 	.db #0x18	; 24
      0002EF 18                     938 	.db #0x18	; 24
      0002F0 00                     939 	.db #0x00	; 0
      0002F1 30                     940 	.db #0x30	; 48	'0'
      0002F2 18                     941 	.db #0x18	; 24
      0002F3 18                     942 	.db #0x18	; 24
      0002F4 0E                     943 	.db #0x0e	; 14
      0002F5 18                     944 	.db #0x18	; 24
      0002F6 18                     945 	.db #0x18	; 24
      0002F7 30                     946 	.db #0x30	; 48	'0'
      0002F8 00                     947 	.db #0x00	; 0
      0002F9 31                     948 	.db #0x31	; 49	'1'
      0002FA 6B                     949 	.db #0x6b	; 107	'k'
      0002FB 46                     950 	.db #0x46	; 70	'F'
      0002FC 00                     951 	.db #0x00	; 0
      0002FD 00                     952 	.db #0x00	; 0
      0002FE 00                     953 	.db #0x00	; 0
      0002FF 00                     954 	.db #0x00	; 0
      000300 00                     955 	.db #0x00	; 0
      000301 FF                     956 	.db #0xff	; 255
      000302 FF                     957 	.db #0xff	; 255
      000303 FF                     958 	.db #0xff	; 255
      000304 FF                     959 	.db #0xff	; 255
      000305 FF                     960 	.db #0xff	; 255
      000306 FF                     961 	.db #0xff	; 255
      000307 FF                     962 	.db #0xff	; 255
      000308 FF                     963 	.db #0xff	; 255
                                    964 ;ps_engine.c:80: static u8  rd8 (const u8 *p) { return p[0]; }
                                    965 ;	---------------------------------
                                    966 ; Function rd8
                                    967 ; ---------------------------------
      000309                        968 _rd8:
      000309 7E               [ 7]  969 	ld	a, (hl)
      00030A C9               [10]  970 	ret
                                    971 ;ps_engine.c:81: static u16 rd16(const u8 *p) { return (u16)p[0] | ((u16)p[1] << 8); }
                                    972 ;	---------------------------------
                                    973 ; Function rd16
                                    974 ; ---------------------------------
      00030B                        975 _rd16:
      00030B 5E               [ 7]  976 	ld	e, (hl)
      00030C 23               [ 6]  977 	inc	hl
      00030D 16 00            [ 7]  978 	ld	d, #0x00
      00030F 6E               [ 7]  979 	ld	l, (hl)
                                    980 ;	spillPairReg hl
                                    981 ;	spillPairReg hl
                                    982 ;	spillPairReg hl
      000310 AF               [ 4]  983 	xor	a, a
      000311 B3               [ 4]  984 	or	a, e
      000312 5F               [ 4]  985 	ld	e, a
      000313 7D               [ 4]  986 	ld	a, l
      000314 B2               [ 4]  987 	or	a, d
      000315 57               [ 4]  988 	ld	d, a
      000316 C9               [10]  989 	ret
                                    990 ;ps_engine.c:82: static u32 rd32(const u8 *p) {
                                    991 ;	---------------------------------
                                    992 ; Function rd32
                                    993 ; ---------------------------------
      000317                        994 _rd32:
      000317 DD E5            [15]  995 	push	ix
      000319 DD 21 00 00      [14]  996 	ld	ix,#0
      00031D DD 39            [15]  997 	add	ix,sp
      00031F FD 21 F8 FF      [14]  998 	ld	iy, #-8
      000323 FD 39            [15]  999 	add	iy, sp
      000325 FD F9            [10] 1000 	ld	sp, iy
      000327 EB               [ 4] 1001 	ex	de, hl
                                   1002 ;ps_engine.c:83: return (u32)p[0] | ((u32)p[1] << 8) | ((u32)p[2] << 16) | ((u32)p[3] << 24);
      000328 1A               [ 7] 1003 	ld	a, (de)
      000329 DD 77 FC         [19] 1004 	ld	-4 (ix), a
      00032C AF               [ 4] 1005 	xor	a, a
      00032D DD 77 FD         [19] 1006 	ld	-3 (ix), a
      000330 DD 77 FE         [19] 1007 	ld	-2 (ix), a
      000333 DD 77 FF         [19] 1008 	ld	-1 (ix), a
      000336 6B               [ 4] 1009 	ld	l, e
                                   1010 ;	spillPairReg hl
                                   1011 ;	spillPairReg hl
      000337 62               [ 4] 1012 	ld	h, d
                                   1013 ;	spillPairReg hl
                                   1014 ;	spillPairReg hl
      000338 23               [ 6] 1015 	inc	hl
      000339 4E               [ 7] 1016 	ld	c, (hl)
      00033A 06 00            [ 7] 1017 	ld	b, #0x00
      00033C 21 00 00         [10] 1018 	ld	hl, #0x0000
      00033F 65               [ 4] 1019 	ld	h, l
                                   1020 ;	spillPairReg hl
                                   1021 ;	spillPairReg hl
      000340 68               [ 4] 1022 	ld	l, b
                                   1023 ;	spillPairReg hl
                                   1024 ;	spillPairReg hl
      000341 41               [ 4] 1025 	ld	b, c
      000342 0E 00            [ 7] 1026 	ld	c, #0x00
      000344 DD 7E FC         [19] 1027 	ld	a, -4 (ix)
      000347 B1               [ 4] 1028 	or	a, c
      000348 DD 77 F8         [19] 1029 	ld	-8 (ix), a
      00034B DD 7E FD         [19] 1030 	ld	a, -3 (ix)
      00034E B0               [ 4] 1031 	or	a, b
      00034F DD 77 F9         [19] 1032 	ld	-7 (ix), a
      000352 DD 7E FE         [19] 1033 	ld	a, -2 (ix)
      000355 B5               [ 4] 1034 	or	a, l
      000356 DD 77 FA         [19] 1035 	ld	-6 (ix), a
      000359 DD 7E FF         [19] 1036 	ld	a, -1 (ix)
      00035C B4               [ 4] 1037 	or	a, h
      00035D DD 77 FB         [19] 1038 	ld	-5 (ix), a
      000360 6B               [ 4] 1039 	ld	l, e
                                   1040 ;	spillPairReg hl
                                   1041 ;	spillPairReg hl
      000361 62               [ 4] 1042 	ld	h, d
                                   1043 ;	spillPairReg hl
                                   1044 ;	spillPairReg hl
      000362 23               [ 6] 1045 	inc	hl
      000363 23               [ 6] 1046 	inc	hl
      000364 6E               [ 7] 1047 	ld	l, (hl)
                                   1048 ;	spillPairReg hl
      000365 26 00            [ 7] 1049 	ld	h, #0x00
                                   1050 ;	spillPairReg hl
                                   1051 ;	spillPairReg hl
      000367 01 00 00         [10] 1052 	ld	bc, #0x0000
      00036A DD 7E F8         [19] 1053 	ld	a, -8 (ix)
      00036D B1               [ 4] 1054 	or	a, c
      00036E DD 77 FC         [19] 1055 	ld	-4 (ix), a
      000371 DD 7E F9         [19] 1056 	ld	a, -7 (ix)
      000374 B0               [ 4] 1057 	or	a, b
      000375 DD 77 FD         [19] 1058 	ld	-3 (ix), a
      000378 DD 7E FA         [19] 1059 	ld	a, -6 (ix)
      00037B B5               [ 4] 1060 	or	a, l
      00037C DD 77 FE         [19] 1061 	ld	-2 (ix), a
      00037F DD 7E FB         [19] 1062 	ld	a, -5 (ix)
      000382 B4               [ 4] 1063 	or	a, h
      000383 DD 77 FF         [19] 1064 	ld	-1 (ix), a
      000386 21 03 00         [10] 1065 	ld	hl, #3
      000389 19               [11] 1066 	add	hl, de
      00038A 66               [ 7] 1067 	ld	h, (hl)
                                   1068 ;	spillPairReg hl
                                   1069 ;	spillPairReg hl
      00038B 01 00 00         [10] 1070 	ld	bc, #0x0000
      00038E 2E 00            [ 7] 1071 	ld	l, #0x00
                                   1072 ;	spillPairReg hl
                                   1073 ;	spillPairReg hl
      000390 DD 7E FC         [19] 1074 	ld	a, -4 (ix)
      000393 B1               [ 4] 1075 	or	a, c
      000394 5F               [ 4] 1076 	ld	e, a
      000395 DD 7E FD         [19] 1077 	ld	a, -3 (ix)
      000398 B0               [ 4] 1078 	or	a, b
      000399 57               [ 4] 1079 	ld	d, a
      00039A DD 7E FE         [19] 1080 	ld	a, -2 (ix)
      00039D B5               [ 4] 1081 	or	a, l
      00039E 6F               [ 4] 1082 	ld	l, a
                                   1083 ;	spillPairReg hl
                                   1084 ;	spillPairReg hl
      00039F DD 7E FF         [19] 1085 	ld	a, -1 (ix)
      0003A2 B4               [ 4] 1086 	or	a, h
      0003A3 67               [ 4] 1087 	ld	h, a
                                   1088 ;	spillPairReg hl
                                   1089 ;	spillPairReg hl
                                   1090 ;ps_engine.c:84: }
      0003A4 DD F9            [10] 1091 	ld	sp, ix
      0003A6 DD E1            [14] 1092 	pop	ix
      0003A8 C9               [10] 1093 	ret
                                   1094 ;ps_engine.c:87: static u8 *far_resolve(const u8 *p3) { return map_bank(p3[0]) + rd16(p3 + 1); }
                                   1095 ;	---------------------------------
                                   1096 ; Function far_resolve
                                   1097 ; ---------------------------------
      0003A9                       1098 _far_resolve:
      0003A9 4E               [ 7] 1099 	ld	c, (hl)
      0003AA E5               [11] 1100 	push	hl
      0003AB 79               [ 4] 1101 	ld	a, c
      0003AC CDr00r00         [17] 1102 	call	_map_bank
      0003AF E1               [10] 1103 	pop	hl
      0003B0 23               [ 6] 1104 	inc	hl
      0003B1 D5               [11] 1105 	push	de
      0003B2 CDr0Br03         [17] 1106 	call	_rd16
      0003B5 EB               [ 4] 1107 	ex	de, hl
      0003B6 D1               [10] 1108 	pop	de
      0003B7 19               [11] 1109 	add	hl, de
      0003B8 EB               [ 4] 1110 	ex	de, hl
      0003B9 C9               [10] 1111 	ret
                                   1112 ;ps_engine.c:142: static u8 rng4(void) {              /* 2 random bits                           */
                                   1113 ;	---------------------------------
                                   1114 ; Function rng4
                                   1115 ; ---------------------------------
      0003BA                       1116 _rng4:
                                   1117 ;ps_engine.c:143: u16 s = rng_state;
      0003BA ED 4Br00r00      [20] 1118 	ld	bc, (_rng_state)
                                   1119 ;ps_engine.c:144: s ^= s << 7; s ^= s >> 9; s ^= s << 8;
      0003BE 69               [ 4] 1120 	ld	l, c
      0003BF 60               [ 4] 1121 	ld	h, b
      0003C0 29               [11] 1122 	add	hl, hl
      0003C1 29               [11] 1123 	add	hl, hl
      0003C2 29               [11] 1124 	add	hl, hl
      0003C3 29               [11] 1125 	add	hl, hl
      0003C4 29               [11] 1126 	add	hl, hl
      0003C5 29               [11] 1127 	add	hl, hl
      0003C6 29               [11] 1128 	add	hl, hl
      0003C7 79               [ 4] 1129 	ld	a, c
      0003C8 AD               [ 4] 1130 	xor	a, l
      0003C9 4F               [ 4] 1131 	ld	c, a
      0003CA 78               [ 4] 1132 	ld	a, b
      0003CB AC               [ 4] 1133 	xor	a, h
      0003CC 47               [ 4] 1134 	ld	b, a
      0003CD CB 3F            [ 8] 1135 	srl	a
      0003CF 5F               [ 4] 1136 	ld	e, a
      0003D0 16 00            [ 7] 1137 	ld	d, #0x00
      0003D2 79               [ 4] 1138 	ld	a, c
      0003D3 AB               [ 4] 1139 	xor	a, e
      0003D4 4F               [ 4] 1140 	ld	c, a
      0003D5 78               [ 4] 1141 	ld	a, b
      0003D6 AA               [ 4] 1142 	xor	a, d
      0003D7 47               [ 4] 1143 	ld	b, a
      0003D8 59               [ 4] 1144 	ld	e, c
      0003D9 AF               [ 4] 1145 	xor	a, a
      0003DA A9               [ 4] 1146 	xor	a, c
      0003DB 6F               [ 4] 1147 	ld	l, a
                                   1148 ;	spillPairReg hl
                                   1149 ;	spillPairReg hl
      0003DC 7B               [ 4] 1150 	ld	a, e
      0003DD A8               [ 4] 1151 	xor	a, b
      0003DE 67               [ 4] 1152 	ld	h, a
                                   1153 ;	spillPairReg hl
                                   1154 ;	spillPairReg hl
                                   1155 ;ps_engine.c:145: rng_state = s;
      0003DF 22r00r00         [16] 1156 	ld	(_rng_state), hl
                                   1157 ;ps_engine.c:146: return (u8)(s & 3);
      0003E2 7D               [ 4] 1158 	ld	a, l
      0003E3 E6 03            [ 7] 1159 	and	a, #0x03
                                   1160 ;ps_engine.c:147: }
      0003E5 C9               [10] 1161 	ret
                                   1162 ;ps_engine.c:148: static u8 rng_mod(u8 n) {
                                   1163 ;	---------------------------------
                                   1164 ; Function rng_mod
                                   1165 ; ---------------------------------
      0003E6                       1166 _rng_mod:
      0003E6 5F               [ 4] 1167 	ld	e, a
                                   1168 ;ps_engine.c:149: u16 s = rng_state;
      0003E7 ED 4Br00r00      [20] 1169 	ld	bc, (_rng_state)
                                   1170 ;ps_engine.c:150: s ^= s << 7; s ^= s >> 9; s ^= s << 8;
      0003EB 69               [ 4] 1171 	ld	l, c
      0003EC 60               [ 4] 1172 	ld	h, b
      0003ED 29               [11] 1173 	add	hl, hl
      0003EE 29               [11] 1174 	add	hl, hl
      0003EF 29               [11] 1175 	add	hl, hl
      0003F0 29               [11] 1176 	add	hl, hl
      0003F1 29               [11] 1177 	add	hl, hl
      0003F2 29               [11] 1178 	add	hl, hl
      0003F3 29               [11] 1179 	add	hl, hl
      0003F4 79               [ 4] 1180 	ld	a, c
      0003F5 AD               [ 4] 1181 	xor	a, l
      0003F6 4F               [ 4] 1182 	ld	c, a
      0003F7 78               [ 4] 1183 	ld	a, b
      0003F8 AC               [ 4] 1184 	xor	a, h
      0003F9 47               [ 4] 1185 	ld	b, a
      0003FA CB 3F            [ 8] 1186 	srl	a
      0003FC 6F               [ 4] 1187 	ld	l, a
                                   1188 ;	spillPairReg hl
                                   1189 ;	spillPairReg hl
      0003FD 26 00            [ 7] 1190 	ld	h, #0x00
                                   1191 ;	spillPairReg hl
                                   1192 ;	spillPairReg hl
      0003FF 79               [ 4] 1193 	ld	a, c
      000400 AD               [ 4] 1194 	xor	a, l
      000401 4F               [ 4] 1195 	ld	c, a
      000402 78               [ 4] 1196 	ld	a, b
      000403 AC               [ 4] 1197 	xor	a, h
      000404 47               [ 4] 1198 	ld	b, a
      000405 51               [ 4] 1199 	ld	d, c
      000406 AF               [ 4] 1200 	xor	a, a
      000407 A9               [ 4] 1201 	xor	a, c
      000408 6F               [ 4] 1202 	ld	l, a
                                   1203 ;	spillPairReg hl
                                   1204 ;	spillPairReg hl
      000409 7A               [ 4] 1205 	ld	a, d
      00040A A8               [ 4] 1206 	xor	a, b
      00040B 67               [ 4] 1207 	ld	h, a
                                   1208 ;	spillPairReg hl
                                   1209 ;	spillPairReg hl
                                   1210 ;ps_engine.c:151: rng_state = s;
      00040C 22r00r00         [16] 1211 	ld	(_rng_state), hl
                                   1212 ;ps_engine.c:152: return (u8)(s % n);
      00040F 16 00            [ 7] 1213 	ld	d, #0x00
      000411 CDr00r00         [17] 1214 	call	__moduint
      000414 7B               [ 4] 1215 	ld	a, e
                                   1216 ;ps_engine.c:153: }
      000415 C9               [10] 1217 	ret
                                   1218 ;ps_engine.c:189: static const u8 *cell_skip(const u8 *p) {
                                   1219 ;	---------------------------------
                                   1220 ; Function cell_skip
                                   1221 ; ---------------------------------
      000416                       1222 _cell_skip:
      000416 EB               [ 4] 1223 	ex	de, hl
                                   1224 ;ps_engine.c:191: p += 16;
      000417 21 10 00         [10] 1225 	ld	hl, #0x0010
      00041A 19               [11] 1226 	add	hl, de
      00041B EB               [ 4] 1227 	ex	de, hl
                                   1228 ;ps_engine.c:192: anyc = *p++;
      00041C 1A               [ 7] 1229 	ld	a, (de)
      00041D 13               [ 6] 1230 	inc	de
                                   1231 ;ps_engine.c:193: p += (u16)anyc << 2;
      00041E 6F               [ 4] 1232 	ld	l, a
                                   1233 ;	spillPairReg hl
                                   1234 ;	spillPairReg hl
      00041F 26 00            [ 7] 1235 	ld	h, #0x00
                                   1236 ;	spillPairReg hl
                                   1237 ;	spillPairReg hl
      000421 29               [11] 1238 	add	hl, hl
      000422 29               [11] 1239 	add	hl, hl
      000423 19               [11] 1240 	add	hl, de
      000424 EB               [ 4] 1241 	ex	de, hl
                                   1242 ;ps_engine.c:194: hasRepl = *p++;
      000425 1A               [ 7] 1243 	ld	a, (de)
      000426 13               [ 6] 1244 	inc	de
                                   1245 ;ps_engine.c:195: if (hasRepl) p += 24;
      000427 B7               [ 4] 1246 	or	a, a
      000428 C8               [11] 1247 	ret	Z
      000429 21 18 00         [10] 1248 	ld	hl, #0x0018
      00042C 19               [11] 1249 	add	hl, de
      00042D EB               [ 4] 1250 	ex	de, hl
                                   1251 ;ps_engine.c:196: return p;
                                   1252 ;ps_engine.c:197: }
      00042E C9               [10] 1253 	ret
                                   1254 ;ps_engine.c:200: static u8 cell_matches(const u8 *p, u8 i) {
                                   1255 ;	---------------------------------
                                   1256 ; Function cell_matches
                                   1257 ; ---------------------------------
      00042F                       1258 _cell_matches:
      00042F DD E5            [15] 1259 	push	ix
      000431 DD 21 00 00      [14] 1260 	ld	ix,#0
      000435 DD 39            [15] 1261 	add	ix,sp
      000437 FD 21 F2 FF      [14] 1262 	ld	iy, #-14
      00043B FD 39            [15] 1263 	add	iy, sp
      00043D FD F9            [10] 1264 	ld	sp, iy
      00043F E3               [19] 1265 	ex	(sp), hl
                                   1266 ;ps_engine.c:201: u32 c = lev[i], m = mov[i], v;
      000440 DD 6E 04         [19] 1267 	ld	l, 4 (ix)
                                   1268 ;	spillPairReg hl
                                   1269 ;	spillPairReg hl
      000443 26 00            [ 7] 1270 	ld	h, #0x00
                                   1271 ;	spillPairReg hl
                                   1272 ;	spillPairReg hl
      000445 29               [11] 1273 	add	hl, hl
      000446 29               [11] 1274 	add	hl, hl
      000447 4D               [ 4] 1275 	ld	c, l
      000448 44               [ 4] 1276 	ld	b, h
      000449 21rC8r00         [10] 1277 	ld	hl, #_lev
      00044C 09               [11] 1278 	add	hl, bc
      00044D C5               [11] 1279 	push	bc
      00044E EB               [ 4] 1280 	ex	de, hl
      00044F 21 04 00         [10] 1281 	ld	hl, #4
      000452 39               [11] 1282 	add	hl, sp
      000453 EB               [ 4] 1283 	ex	de, hl
      000454 01 04 00         [10] 1284 	ld	bc, #0x0004
      000457 ED B0            [21] 1285 	ldir
      000459 C1               [10] 1286 	pop	bc
      00045A 21rC8r03         [10] 1287 	ld	hl, #_mov+0
      00045D 09               [11] 1288 	add	hl, bc
      00045E EB               [ 4] 1289 	ex	de, hl
      00045F 21 06 00         [10] 1290 	ld	hl, #6
      000462 39               [11] 1291 	add	hl, sp
      000463 EB               [ 4] 1292 	ex	de, hl
      000464 01 04 00         [10] 1293 	ld	bc, #0x0004
      000467 ED B0            [21] 1294 	ldir
                                   1295 ;ps_engine.c:203: v = rd32(p);      if ((c & v) != v) return 0;   /* objectsPresent (all)   */
      000469 E1               [10] 1296 	pop	hl
      00046A E5               [11] 1297 	push	hl
      00046B CDr17r03         [17] 1298 	call	_rd32
      00046E EB               [ 4] 1299 	ex	de, hl
      00046F DD 7E F4         [19] 1300 	ld	a, -12 (ix)
      000472 A5               [ 4] 1301 	and	a, l
      000473 DD 77 FC         [19] 1302 	ld	-4 (ix), a
      000476 DD 7E F5         [19] 1303 	ld	a, -11 (ix)
      000479 A4               [ 4] 1304 	and	a, h
      00047A DD 77 FD         [19] 1305 	ld	-3 (ix), a
      00047D DD 7E F6         [19] 1306 	ld	a, -10 (ix)
      000480 A3               [ 4] 1307 	and	a, e
      000481 DD 77 FE         [19] 1308 	ld	-2 (ix), a
      000484 DD 7E F7         [19] 1309 	ld	a, -9 (ix)
      000487 A2               [ 4] 1310 	and	a, d
      000488 DD 77 FF         [19] 1311 	ld	-1 (ix), a
      00048B DD 4E FC         [19] 1312 	ld	c, -4 (ix)
      00048E DD 46 FD         [19] 1313 	ld	b, -3 (ix)
      000491 BF               [ 4] 1314 	cp	a, a
      000492 ED 42            [15] 1315 	sbc	hl, bc
      000494 20 0B            [12] 1316 	jr	NZ, 00151$
      000496 DD 6E FE         [19] 1317 	ld	l, -2 (ix)
      000499 DD 66 FF         [19] 1318 	ld	h, -1 (ix)
      00049C BF               [ 4] 1319 	cp	a, a
      00049D ED 52            [15] 1320 	sbc	hl, de
      00049F 28 04            [12] 1321 	jr	Z, 00102$
      0004A1                       1322 00151$:
      0004A1 AF               [ 4] 1323 	xor	a, a
      0004A2 C3r9Dr05         [10] 1324 	jp	00114$
      0004A5                       1325 00102$:
                                   1326 ;ps_engine.c:204: v = rd32(p + 4);  if (c & v)        return 0;   /* objectsMissing         */
      0004A5 E1               [10] 1327 	pop	hl
      0004A6 E5               [11] 1328 	push	hl
      0004A7 11 04 00         [10] 1329 	ld	de, #0x0004
      0004AA 19               [11] 1330 	add	hl, de
      0004AB CDr17r03         [17] 1331 	call	_rd32
      0004AE DD 73 FC         [19] 1332 	ld	-4 (ix), e
      0004B1 DD 72 FD         [19] 1333 	ld	-3 (ix), d
      0004B4 DD 75 FE         [19] 1334 	ld	-2 (ix), l
      0004B7 DD 74 FF         [19] 1335 	ld	-1 (ix), h
      0004BA DD 4E FC         [19] 1336 	ld	c, -4 (ix)
      0004BD DD 46 FD         [19] 1337 	ld	b, -3 (ix)
      0004C0 DD 5E FE         [19] 1338 	ld	e, -2 (ix)
      0004C3 DD 56 FF         [19] 1339 	ld	d, -1 (ix)
      0004C6 79               [ 4] 1340 	ld	a, c
      0004C7 DD A6 F4         [19] 1341 	and	a, -12 (ix)
      0004CA 4F               [ 4] 1342 	ld	c, a
      0004CB 78               [ 4] 1343 	ld	a, b
      0004CC DD A6 F5         [19] 1344 	and	a, -11 (ix)
      0004CF 47               [ 4] 1345 	ld	b, a
      0004D0 7B               [ 4] 1346 	ld	a, e
      0004D1 DD A6 F6         [19] 1347 	and	a, -10 (ix)
      0004D4 5F               [ 4] 1348 	ld	e, a
      0004D5 7A               [ 4] 1349 	ld	a, d
      0004D6 DD A6 F7         [19] 1350 	and	a, -9 (ix)
      0004D9 57               [ 4] 1351 	ld	d, a
      0004DA B3               [ 4] 1352 	or	a, e
      0004DB B0               [ 4] 1353 	or	a, b
      0004DC B1               [ 4] 1354 	or	a, c
      0004DD 28 04            [12] 1355 	jr	Z, 00104$
      0004DF AF               [ 4] 1356 	xor	a, a
      0004E0 C3r9Dr05         [10] 1357 	jp	00114$
      0004E3                       1358 00104$:
                                   1359 ;ps_engine.c:205: v = rd32(p + 8);  if ((m & v) != v) return 0;   /* movementsPresent       */
      0004E3 E1               [10] 1360 	pop	hl
      0004E4 E5               [11] 1361 	push	hl
      0004E5 11 08 00         [10] 1362 	ld	de, #0x0008
      0004E8 19               [11] 1363 	add	hl, de
      0004E9 CDr17r03         [17] 1364 	call	_rd32
      0004EC EB               [ 4] 1365 	ex	de, hl
      0004ED DD 7E F8         [19] 1366 	ld	a, -8 (ix)
      0004F0 A5               [ 4] 1367 	and	a, l
      0004F1 DD 77 FC         [19] 1368 	ld	-4 (ix), a
      0004F4 DD 7E F9         [19] 1369 	ld	a, -7 (ix)
      0004F7 A4               [ 4] 1370 	and	a, h
      0004F8 DD 77 FD         [19] 1371 	ld	-3 (ix), a
      0004FB DD 7E FA         [19] 1372 	ld	a, -6 (ix)
      0004FE A3               [ 4] 1373 	and	a, e
      0004FF DD 77 FE         [19] 1374 	ld	-2 (ix), a
      000502 DD 7E FB         [19] 1375 	ld	a, -5 (ix)
      000505 A2               [ 4] 1376 	and	a, d
      000506 DD 77 FF         [19] 1377 	ld	-1 (ix), a
      000509 DD 4E FC         [19] 1378 	ld	c, -4 (ix)
      00050C DD 46 FD         [19] 1379 	ld	b, -3 (ix)
      00050F BF               [ 4] 1380 	cp	a, a
      000510 ED 42            [15] 1381 	sbc	hl, bc
      000512 20 0B            [12] 1382 	jr	NZ, 00152$
      000514 DD 6E FE         [19] 1383 	ld	l, -2 (ix)
      000517 DD 66 FF         [19] 1384 	ld	h, -1 (ix)
      00051A BF               [ 4] 1385 	cp	a, a
      00051B ED 52            [15] 1386 	sbc	hl, de
      00051D 28 03            [12] 1387 	jr	Z, 00106$
      00051F                       1388 00152$:
      00051F AF               [ 4] 1389 	xor	a, a
      000520 18 7B            [12] 1390 	jr	00114$
      000522                       1391 00106$:
                                   1392 ;ps_engine.c:206: v = rd32(p + 12); if (m & v)        return 0;   /* movementsMissing       */
      000522 E1               [10] 1393 	pop	hl
      000523 E5               [11] 1394 	push	hl
      000524 11 0C 00         [10] 1395 	ld	de, #0x000c
      000527 19               [11] 1396 	add	hl, de
      000528 CDr17r03         [17] 1397 	call	_rd32
      00052B DD 73 FC         [19] 1398 	ld	-4 (ix), e
      00052E DD 72 FD         [19] 1399 	ld	-3 (ix), d
      000531 DD 75 FE         [19] 1400 	ld	-2 (ix), l
      000534 DD 74 FF         [19] 1401 	ld	-1 (ix), h
      000537 DD 4E FC         [19] 1402 	ld	c, -4 (ix)
      00053A DD 46 FD         [19] 1403 	ld	b, -3 (ix)
      00053D DD 5E FE         [19] 1404 	ld	e, -2 (ix)
      000540 DD 56 FF         [19] 1405 	ld	d, -1 (ix)
      000543 79               [ 4] 1406 	ld	a, c
      000544 DD A6 F8         [19] 1407 	and	a, -8 (ix)
      000547 4F               [ 4] 1408 	ld	c, a
      000548 78               [ 4] 1409 	ld	a, b
      000549 DD A6 F9         [19] 1410 	and	a, -7 (ix)
      00054C 47               [ 4] 1411 	ld	b, a
      00054D 7B               [ 4] 1412 	ld	a, e
      00054E DD A6 FA         [19] 1413 	and	a, -6 (ix)
      000551 5F               [ 4] 1414 	ld	e, a
      000552 7A               [ 4] 1415 	ld	a, d
      000553 DD A6 FB         [19] 1416 	and	a, -5 (ix)
      000556 57               [ 4] 1417 	ld	d, a
      000557 B3               [ 4] 1418 	or	a, e
      000558 B0               [ 4] 1419 	or	a, b
      000559 B1               [ 4] 1420 	or	a, c
      00055A 28 03            [12] 1421 	jr	Z, 00108$
      00055C AF               [ 4] 1422 	xor	a, a
      00055D 18 3E            [12] 1423 	jr	00114$
      00055F                       1424 00108$:
                                   1425 ;ps_engine.c:207: p += 16;
      00055F E1               [10] 1426 	pop	hl
      000560 E5               [11] 1427 	push	hl
      000561 11 10 00         [10] 1428 	ld	de, #0x0010
      000564 19               [11] 1429 	add	hl, de
                                   1430 ;ps_engine.c:208: anyc = *p++;
      000565 7E               [ 7] 1431 	ld	a, (hl)
      000566 DD 77 FF         [19] 1432 	ld	-1 (ix), a
      000569 23               [ 6] 1433 	inc	hl
                                   1434 ;ps_engine.c:209: while (anyc--) {
      00056A                       1435 00111$:
      00056A DD 4E FF         [19] 1436 	ld	c, -1 (ix)
      00056D DD 35 FF         [23] 1437 	dec	-1 (ix)
      000570 79               [ 4] 1438 	ld	a, c
      000571 B7               [ 4] 1439 	or	a, a
      000572 28 27            [12] 1440 	jr	Z, 00113$
                                   1441 ;ps_engine.c:210: v = rd32(p); p += 4;
      000574 E5               [11] 1442 	push	hl
      000575 CDr17r03         [17] 1443 	call	_rd32
      000578 4D               [ 4] 1444 	ld	c, l
      000579 44               [ 4] 1445 	ld	b, h
      00057A E1               [10] 1446 	pop	hl
      00057B 23               [ 6] 1447 	inc	hl
      00057C 23               [ 6] 1448 	inc	hl
      00057D 23               [ 6] 1449 	inc	hl
      00057E 23               [ 6] 1450 	inc	hl
                                   1451 ;ps_engine.c:211: if (!(c & v)) return 0;                     /* anyObjectsPresent      */
      00057F 7B               [ 4] 1452 	ld	a, e
      000580 DD A6 F4         [19] 1453 	and	a, -12 (ix)
      000583 5F               [ 4] 1454 	ld	e, a
      000584 7A               [ 4] 1455 	ld	a, d
      000585 DD A6 F5         [19] 1456 	and	a, -11 (ix)
      000588 57               [ 4] 1457 	ld	d, a
      000589 79               [ 4] 1458 	ld	a, c
      00058A DD A6 F6         [19] 1459 	and	a, -10 (ix)
      00058D 4F               [ 4] 1460 	ld	c, a
      00058E 78               [ 4] 1461 	ld	a, b
      00058F DD A6 F7         [19] 1462 	and	a, -9 (ix)
      000592 47               [ 4] 1463 	ld	b, a
      000593 B1               [ 4] 1464 	or	a, c
      000594 B2               [ 4] 1465 	or	a, d
      000595 B3               [ 4] 1466 	or	a, e
      000596 20 D2            [12] 1467 	jr	NZ, 00111$
      000598 AF               [ 4] 1468 	xor	a, a
      000599 18 02            [12] 1469 	jr	00114$
      00059B                       1470 00113$:
                                   1471 ;ps_engine.c:213: return 1;
      00059B 3E 01            [ 7] 1472 	ld	a, #0x01
      00059D                       1473 00114$:
                                   1474 ;ps_engine.c:214: }
      00059D DD F9            [10] 1475 	ld	sp, ix
      00059F DD E1            [14] 1476 	pop	ix
      0005A1 E1               [10] 1477 	pop	hl
      0005A2 33               [ 6] 1478 	inc	sp
      0005A3 E9               [ 4] 1479 	jp	(hl)
                                   1480 ;ps_engine.c:218: static u8 cell_apply(const u8 *p, u8 i) {
                                   1481 ;	---------------------------------
                                   1482 ; Function cell_apply
                                   1483 ; ---------------------------------
      0005A4                       1484 _cell_apply:
      0005A4 DD E5            [15] 1485 	push	ix
      0005A6 DD 21 00 00      [14] 1486 	ld	ix,#0
      0005AA DD 39            [15] 1487 	add	ix,sp
      0005AC FD 21 C2 FF      [14] 1488 	ld	iy, #-62
      0005B0 FD 39            [15] 1489 	add	iy, sp
      0005B2 FD F9            [10] 1490 	ld	sp, iy
      0005B4 EB               [ 4] 1491 	ex	de, hl
                                   1492 ;ps_engine.c:222: p += 16; anyc = *p++; p += (u16)anyc << 2;
      0005B5 21 10 00         [10] 1493 	ld	hl, #0x0010
      0005B8 19               [11] 1494 	add	hl, de
      0005B9 EB               [ 4] 1495 	ex	de, hl
      0005BA 1A               [ 7] 1496 	ld	a, (de)
      0005BB 13               [ 6] 1497 	inc	de
      0005BC 6F               [ 4] 1498 	ld	l, a
                                   1499 ;	spillPairReg hl
                                   1500 ;	spillPairReg hl
      0005BD 26 00            [ 7] 1501 	ld	h, #0x00
                                   1502 ;	spillPairReg hl
                                   1503 ;	spillPairReg hl
      0005BF 29               [11] 1504 	add	hl, hl
      0005C0 29               [11] 1505 	add	hl, hl
      0005C1 19               [11] 1506 	add	hl, de
      0005C2 EB               [ 4] 1507 	ex	de, hl
                                   1508 ;ps_engine.c:223: hasRepl = *p++;
      0005C3 1A               [ 7] 1509 	ld	a, (de)
      0005C4 4F               [ 4] 1510 	ld	c, a
      0005C5 13               [ 6] 1511 	inc	de
      0005C6 DD 73 FE         [19] 1512 	ld	-2 (ix), e
      0005C9 DD 72 FF         [19] 1513 	ld	-1 (ix), d
                                   1514 ;ps_engine.c:224: if (!hasRepl) return 0;
      0005CC 79               [ 4] 1515 	ld	a, c
      0005CD B7               [ 4] 1516 	or	a, a
      0005CE 20 04            [12] 1517 	jr	NZ, 00102$
      0005D0 AF               [ 4] 1518 	xor	a, a
      0005D1 C3r67r09         [10] 1519 	jp	00122$
      0005D4                       1520 00102$:
                                   1521 ;ps_engine.c:225: objClear = rd32(p);      objSet  = rd32(p + 4);
      0005D4 DD 6E FE         [19] 1522 	ld	l, -2 (ix)
                                   1523 ;	spillPairReg hl
                                   1524 ;	spillPairReg hl
      0005D7 DD 66 FF         [19] 1525 	ld	h, -1 (ix)
                                   1526 ;	spillPairReg hl
                                   1527 ;	spillPairReg hl
      0005DA CDr17r03         [17] 1528 	call	_rd32
      0005DD DD 73 EE         [19] 1529 	ld	-18 (ix), e
      0005E0 DD 72 EF         [19] 1530 	ld	-17 (ix), d
      0005E3 DD 75 F0         [19] 1531 	ld	-16 (ix), l
      0005E6 DD 74 F1         [19] 1532 	ld	-15 (ix), h
      0005E9 DD 6E FE         [19] 1533 	ld	l, -2 (ix)
      0005EC DD 66 FF         [19] 1534 	ld	h, -1 (ix)
      0005EF 11 04 00         [10] 1535 	ld	de, #0x0004
      0005F2 19               [11] 1536 	add	hl, de
      0005F3 CDr17r03         [17] 1537 	call	_rd32
      0005F6 DD 73 F2         [19] 1538 	ld	-14 (ix), e
      0005F9 DD 72 F3         [19] 1539 	ld	-13 (ix), d
      0005FC DD 75 F4         [19] 1540 	ld	-12 (ix), l
      0005FF DD 74 F5         [19] 1541 	ld	-11 (ix), h
                                   1542 ;ps_engine.c:226: movClear = rd32(p + 8);  movSet  = rd32(p + 12);
      000602 DD 6E FE         [19] 1543 	ld	l, -2 (ix)
      000605 DD 66 FF         [19] 1544 	ld	h, -1 (ix)
      000608 11 08 00         [10] 1545 	ld	de, #0x0008
      00060B 19               [11] 1546 	add	hl, de
      00060C CDr17r03         [17] 1547 	call	_rd32
      00060F DD 73 F6         [19] 1548 	ld	-10 (ix), e
      000612 DD 72 F7         [19] 1549 	ld	-9 (ix), d
      000615 DD 75 F8         [19] 1550 	ld	-8 (ix), l
      000618 DD 74 F9         [19] 1551 	ld	-7 (ix), h
      00061B DD 6E FE         [19] 1552 	ld	l, -2 (ix)
      00061E DD 66 FF         [19] 1553 	ld	h, -1 (ix)
      000621 11 0C 00         [10] 1554 	ld	de, #0x000c
      000624 19               [11] 1555 	add	hl, de
      000625 CDr17r03         [17] 1556 	call	_rd32
      000628 DD 73 FA         [19] 1557 	ld	-6 (ix), e
      00062B DD 72 FB         [19] 1558 	ld	-5 (ix), d
      00062E DD 75 FC         [19] 1559 	ld	-4 (ix), l
      000631 DD 74 FD         [19] 1560 	ld	-3 (ix), h
                                   1561 ;ps_engine.c:227: randEnt  = rd32(p + 16); randDir = rd32(p + 20);
      000634 DD 6E FE         [19] 1562 	ld	l, -2 (ix)
      000637 DD 66 FF         [19] 1563 	ld	h, -1 (ix)
      00063A 11 10 00         [10] 1564 	ld	de, #0x0010
      00063D 19               [11] 1565 	add	hl, de
      00063E CDr17r03         [17] 1566 	call	_rd32
      000641 4B               [ 4] 1567 	ld	c, e
      000642 42               [ 4] 1568 	ld	b, d
      000643 EB               [ 4] 1569 	ex	de, hl
      000644 DD 7E FE         [19] 1570 	ld	a, -2 (ix)
      000647 C6 14            [ 7] 1571 	add	a, #0x14
      000649 6F               [ 4] 1572 	ld	l, a
                                   1573 ;	spillPairReg hl
                                   1574 ;	spillPairReg hl
      00064A DD 7E FF         [19] 1575 	ld	a, -1 (ix)
      00064D CE 00            [ 7] 1576 	adc	a, #0x00
      00064F 67               [ 4] 1577 	ld	h, a
                                   1578 ;	spillPairReg hl
                                   1579 ;	spillPairReg hl
      000650 C5               [11] 1580 	push	bc
      000651 D5               [11] 1581 	push	de
      000652 CDr17r03         [17] 1582 	call	_rd32
      000655 D5               [11] 1583 	push	de
      000656 FD E1            [14] 1584 	pop	iy
      000658 D1               [10] 1585 	pop	de
      000659 C1               [10] 1586 	pop	bc
      00065A FD E5            [15] 1587 	push	iy
      00065C E3               [19] 1588 	ex	(sp), hl
      00065D DD 75 E2         [19] 1589 	ld	-30 (ix), l
      000660 E3               [19] 1590 	ex	(sp), hl
      000661 E3               [19] 1591 	ex	(sp), hl
      000662 DD 74 E3         [19] 1592 	ld	-29 (ix), h
      000665 E3               [19] 1593 	ex	(sp), hl
      000666 FD E1            [14] 1594 	pop	iy
      000668 DD 75 E4         [19] 1595 	ld	-28 (ix), l
      00066B DD 74 E5         [19] 1596 	ld	-27 (ix), h
                                   1597 ;ps_engine.c:229: if (randEnt) {                       /* random object from a property     */
      00066E 7A               [ 4] 1598 	ld	a, d
      00066F B3               [ 4] 1599 	or	a, e
      000670 B0               [ 4] 1600 	or	a, b
      000671 B1               [ 4] 1601 	or	a, c
      000672 CAr90r07         [10] 1602 	jp	Z, 00107$
                                   1603 ;ps_engine.c:231: for (k = 0; k < g_nobj; k++)
      000675 DD 36 FE 00      [19] 1604 	ld	-2 (ix), #0x00
      000679 DD 36 FF 00      [19] 1605 	ld	-1 (ix), #0x00
      00067D                       1606 00117$:
      00067D 21r00r00         [10] 1607 	ld	hl, #_g_nobj
      000680 DD 7E FF         [19] 1608 	ld	a, -1 (ix)
      000683 96               [ 7] 1609 	sub	a, (hl)
      000684 30 68            [12] 1610 	jr	NC, 00105$
                                   1611 ;ps_engine.c:232: if (randEnt & ((u32)1 << k)) choices[n++] = k;
      000686 DD 7E FF         [19] 1612 	ld	a, -1 (ix)
      000689 DD 36 E6 01      [19] 1613 	ld	-26 (ix), #0x01
      00068D DD 36 E7 00      [19] 1614 	ld	-25 (ix), #0x00
      000691 DD 36 E8 00      [19] 1615 	ld	-24 (ix), #0x00
      000695 DD 36 E9 00      [19] 1616 	ld	-23 (ix), #0x00
      000699 3C               [ 4] 1617 	inc	a
      00069A 18 10            [12] 1618 	jr	00182$
      00069C                       1619 00181$:
      00069C DD CB E6 26      [23] 1620 	sla	-26 (ix)
      0006A0 DD CB E7 16      [23] 1621 	rl	-25 (ix)
      0006A4 DD CB E8 16      [23] 1622 	rl	-24 (ix)
      0006A8 DD CB E9 16      [23] 1623 	rl	-23 (ix)
      0006AC                       1624 00182$:
      0006AC 3D               [ 4] 1625 	dec	a
      0006AD 20 ED            [12] 1626 	jr	NZ,00181$
      0006AF 79               [ 4] 1627 	ld	a, c
      0006B0 DD A6 E6         [19] 1628 	and	a, -26 (ix)
      0006B3 DD 77 EA         [19] 1629 	ld	-22 (ix), a
      0006B6 78               [ 4] 1630 	ld	a, b
      0006B7 DD A6 E7         [19] 1631 	and	a, -25 (ix)
      0006BA DD 77 EB         [19] 1632 	ld	-21 (ix), a
      0006BD 7B               [ 4] 1633 	ld	a, e
      0006BE DD A6 E8         [19] 1634 	and	a, -24 (ix)
      0006C1 DD 77 EC         [19] 1635 	ld	-20 (ix), a
      0006C4 7A               [ 4] 1636 	ld	a, d
      0006C5 DD A6 E9         [19] 1637 	and	a, -23 (ix)
      0006C8 DD 77 ED         [19] 1638 	ld	-19 (ix), a
      0006CB DD B6 EC         [19] 1639 	or	a, -20 (ix)
      0006CE DD B6 EB         [19] 1640 	or	a, -21 (ix)
      0006D1 DD B6 EA         [19] 1641 	or	a, -22 (ix)
      0006D4 28 13            [12] 1642 	jr	Z, 00118$
      0006D6 D5               [11] 1643 	push	de
      0006D7 DD 5E FE         [19] 1644 	ld	e, -2 (ix)
      0006DA 16 00            [ 7] 1645 	ld	d, #0x00
      0006DC 21 02 00         [10] 1646 	ld	hl, #2
      0006DF 39               [11] 1647 	add	hl, sp
      0006E0 19               [11] 1648 	add	hl, de
      0006E1 D1               [10] 1649 	pop	de
      0006E2 DD 34 FE         [23] 1650 	inc	-2 (ix)
      0006E5 DD 7E FF         [19] 1651 	ld	a, -1 (ix)
      0006E8 77               [ 7] 1652 	ld	(hl), a
      0006E9                       1653 00118$:
                                   1654 ;ps_engine.c:231: for (k = 0; k < g_nobj; k++)
      0006E9 DD 34 FF         [23] 1655 	inc	-1 (ix)
      0006EC 18 8F            [12] 1656 	jr	00117$
      0006EE                       1657 00105$:
                                   1658 ;ps_engine.c:233: r = choices[rng_mod(n)];
      0006EE DD 7E FE         [19] 1659 	ld	a, -2 (ix)
      0006F1 CDrE6r03         [17] 1660 	call	_rng_mod
      0006F4 5F               [ 4] 1661 	ld	e, a
      0006F5 16 00            [ 7] 1662 	ld	d, #0x00
      0006F7 21 00 00         [10] 1663 	ld	hl, #0
      0006FA 39               [11] 1664 	add	hl, sp
      0006FB 19               [11] 1665 	add	hl, de
      0006FC 46               [ 7] 1666 	ld	b, (hl)
                                   1667 ;ps_engine.c:234: lay = g_objLayer[r];
      0006FD 11r26r00         [10] 1668 	ld	de, #_g_objLayer+0
      000700 68               [ 4] 1669 	ld	l, b
      000701 26 00            [ 7] 1670 	ld	h, #0x00
      000703 19               [11] 1671 	add	hl, de
      000704 4E               [ 7] 1672 	ld	c, (hl)
                                   1673 ;ps_engine.c:235: objSet   |= (u32)1 << r;
      000705 21 01 00         [10] 1674 	ld	hl, #0x0001
      000708 11 00 00         [10] 1675 	ld	de, #0x0000
      00070B 04               [ 4] 1676 	inc	b
      00070C 18 05            [12] 1677 	jr	00184$
      00070E                       1678 00183$:
      00070E 29               [11] 1679 	add	hl, hl
      00070F CB 13            [ 8] 1680 	rl	e
      000711 CB 12            [ 8] 1681 	rl	d
      000713                       1682 00184$:
      000713 10 F9            [13] 1683 	djnz	00183$
      000715 DD 7E F2         [19] 1684 	ld	a, -14 (ix)
      000718 B5               [ 4] 1685 	or	a, l
      000719 DD 77 F2         [19] 1686 	ld	-14 (ix), a
      00071C DD 7E F3         [19] 1687 	ld	a, -13 (ix)
      00071F B4               [ 4] 1688 	or	a, h
      000720 DD 77 F3         [19] 1689 	ld	-13 (ix), a
      000723 DD 7E F4         [19] 1690 	ld	a, -12 (ix)
      000726 B3               [ 4] 1691 	or	a, e
      000727 DD 77 F4         [19] 1692 	ld	-12 (ix), a
      00072A DD 7E F5         [19] 1693 	ld	a, -11 (ix)
      00072D B2               [ 4] 1694 	or	a, d
      00072E DD 77 F5         [19] 1695 	ld	-11 (ix), a
                                   1696 ;ps_engine.c:236: objClear |= g_layerMasks[lay];
      000731 69               [ 4] 1697 	ld	l, c
                                   1698 ;	spillPairReg hl
                                   1699 ;	spillPairReg hl
      000732 26 00            [ 7] 1700 	ld	h, #0x00
                                   1701 ;	spillPairReg hl
                                   1702 ;	spillPairReg hl
      000734 29               [11] 1703 	add	hl, hl
      000735 29               [11] 1704 	add	hl, hl
      000736 11r0Er00         [10] 1705 	ld	de, #_g_layerMasks
      000739 19               [11] 1706 	add	hl, de
      00073A 5E               [ 7] 1707 	ld	e, (hl)
      00073B 23               [ 6] 1708 	inc	hl
      00073C 56               [ 7] 1709 	ld	d, (hl)
      00073D 23               [ 6] 1710 	inc	hl
      00073E 23               [ 6] 1711 	inc	hl
      00073F 7E               [ 7] 1712 	ld	a, (hl)
      000740 2B               [ 6] 1713 	dec	hl
      000741 6E               [ 7] 1714 	ld	l, (hl)
                                   1715 ;	spillPairReg hl
      000742 67               [ 4] 1716 	ld	h, a
                                   1717 ;	spillPairReg hl
                                   1718 ;	spillPairReg hl
      000743 DD 7E EE         [19] 1719 	ld	a, -18 (ix)
      000746 B3               [ 4] 1720 	or	a, e
      000747 DD 77 EE         [19] 1721 	ld	-18 (ix), a
      00074A DD 7E EF         [19] 1722 	ld	a, -17 (ix)
      00074D B2               [ 4] 1723 	or	a, d
      00074E DD 77 EF         [19] 1724 	ld	-17 (ix), a
      000751 DD 7E F0         [19] 1725 	ld	a, -16 (ix)
      000754 B5               [ 4] 1726 	or	a, l
      000755 DD 77 F0         [19] 1727 	ld	-16 (ix), a
      000758 DD 7E F1         [19] 1728 	ld	a, -15 (ix)
      00075B B4               [ 4] 1729 	or	a, h
      00075C DD 77 F1         [19] 1730 	ld	-15 (ix), a
                                   1731 ;ps_engine.c:237: movClear |= (u32)0x1F << (lay + (lay << 2));  /* 5*lay */
      00075F 79               [ 4] 1732 	ld	a, c
      000760 87               [ 4] 1733 	add	a, a
      000761 87               [ 4] 1734 	add	a, a
      000762 81               [ 4] 1735 	add	a, c
      000763 47               [ 4] 1736 	ld	b, a
      000764 21 1F 00         [10] 1737 	ld	hl, #0x001f
      000767 11 00 00         [10] 1738 	ld	de, #0x0000
      00076A 04               [ 4] 1739 	inc	b
      00076B 18 05            [12] 1740 	jr	00186$
      00076D                       1741 00185$:
      00076D 29               [11] 1742 	add	hl, hl
      00076E CB 13            [ 8] 1743 	rl	e
      000770 CB 12            [ 8] 1744 	rl	d
      000772                       1745 00186$:
      000772 10 F9            [13] 1746 	djnz	00185$
      000774 DD 7E F6         [19] 1747 	ld	a, -10 (ix)
      000777 B5               [ 4] 1748 	or	a, l
      000778 DD 77 F6         [19] 1749 	ld	-10 (ix), a
      00077B DD 7E F7         [19] 1750 	ld	a, -9 (ix)
      00077E B4               [ 4] 1751 	or	a, h
      00077F DD 77 F7         [19] 1752 	ld	-9 (ix), a
      000782 DD 7E F8         [19] 1753 	ld	a, -8 (ix)
      000785 B3               [ 4] 1754 	or	a, e
      000786 DD 77 F8         [19] 1755 	ld	-8 (ix), a
      000789 DD 7E F9         [19] 1756 	ld	a, -7 (ix)
      00078C B2               [ 4] 1757 	or	a, d
      00078D DD 77 F9         [19] 1758 	ld	-7 (ix), a
      000790                       1759 00107$:
                                   1760 ;ps_engine.c:239: if (randDir) {                       /* "randomdir" per layer             */
      000790 DD 7E E5         [19] 1761 	ld	a, -27 (ix)
      000793 DD B6 E4         [19] 1762 	or	a, -28 (ix)
      000796 DD B6 E3         [19] 1763 	or	a, -29 (ix)
      000799 DD B6 E2         [19] 1764 	or	a, -30 (ix)
      00079C CAr1Fr08         [10] 1765 	jp	Z, 00112$
                                   1766 ;ps_engine.c:240: u8 sh = 0;
      00079F DD 36 ED 00      [19] 1767 	ld	-19 (ix), #0x00
                                   1768 ;ps_engine.c:241: for (k = 0; k < g_nlayers; k++, sh += 5)
      0007A3 DD 36 FF 00      [19] 1769 	ld	-1 (ix), #0x00
      0007A7                       1770 00120$:
      0007A7 21r01r00         [10] 1771 	ld	hl, #_g_nlayers
      0007AA DD 7E FF         [19] 1772 	ld	a, -1 (ix)
      0007AD 96               [ 7] 1773 	sub	a, (hl)
      0007AE 30 6F            [12] 1774 	jr	NC, 00112$
                                   1775 ;ps_engine.c:242: if (randDir & ((u32)1 << sh))
      0007B0 DD 46 ED         [19] 1776 	ld	b, -19 (ix)
      0007B3 3E 01            [ 7] 1777 	ld	a, #0x01
      0007B5 1E 00            [ 7] 1778 	ld	e, #0x00
      0007B7 21 00 00         [10] 1779 	ld	hl, #0x0000
      0007BA 04               [ 4] 1780 	inc	b
      0007BB 18 05            [12] 1781 	jr	00188$
      0007BD                       1782 00187$:
      0007BD 87               [ 4] 1783 	add	a, a
      0007BE CB 13            [ 8] 1784 	rl	e
      0007C0 ED 6A            [15] 1785 	adc	hl, hl
      0007C2                       1786 00188$:
      0007C2 10 F9            [13] 1787 	djnz	00187$
      0007C4 DD A6 E2         [19] 1788 	and	a, -30 (ix)
      0007C7 4F               [ 4] 1789 	ld	c, a
      0007C8 7B               [ 4] 1790 	ld	a, e
      0007C9 DD A6 E3         [19] 1791 	and	a, -29 (ix)
      0007CC 47               [ 4] 1792 	ld	b, a
      0007CD 7D               [ 4] 1793 	ld	a, l
      0007CE DD A6 E4         [19] 1794 	and	a, -28 (ix)
      0007D1 5F               [ 4] 1795 	ld	e, a
      0007D2 7C               [ 4] 1796 	ld	a, h
      0007D3 DD A6 E5         [19] 1797 	and	a, -27 (ix)
      0007D6 B3               [ 4] 1798 	or	a, e
      0007D7 B0               [ 4] 1799 	or	a, b
      0007D8 B1               [ 4] 1800 	or	a, c
      0007D9 28 37            [12] 1801 	jr	Z, 00121$
                                   1802 ;ps_engine.c:243: movSet |= (u32)1 << (rng4() + sh);
      0007DB CDrBAr03         [17] 1803 	call	_rng4
      0007DE DD 77 FE         [19] 1804 	ld	-2 (ix), a
      0007E1 DD 86 ED         [19] 1805 	add	a, -19 (ix)
      0007E4 5F               [ 4] 1806 	ld	e, a
      0007E5 21 01 00         [10] 1807 	ld	hl, #0x0001
      0007E8 01 00 00         [10] 1808 	ld	bc, #0x0000
      0007EB 1C               [ 4] 1809 	inc	e
      0007EC 18 05            [12] 1810 	jr	00190$
      0007EE                       1811 00189$:
      0007EE 29               [11] 1812 	add	hl, hl
      0007EF CB 11            [ 8] 1813 	rl	c
      0007F1 CB 10            [ 8] 1814 	rl	b
      0007F3                       1815 00190$:
      0007F3 1D               [ 4] 1816 	dec	e
      0007F4 20 F8            [12] 1817 	jr	NZ,00189$
      0007F6 DD 7E FA         [19] 1818 	ld	a, -6 (ix)
      0007F9 B5               [ 4] 1819 	or	a, l
      0007FA DD 77 FA         [19] 1820 	ld	-6 (ix), a
      0007FD DD 7E FB         [19] 1821 	ld	a, -5 (ix)
      000800 B4               [ 4] 1822 	or	a, h
      000801 DD 77 FB         [19] 1823 	ld	-5 (ix), a
      000804 DD 7E FC         [19] 1824 	ld	a, -4 (ix)
      000807 B1               [ 4] 1825 	or	a, c
      000808 DD 77 FC         [19] 1826 	ld	-4 (ix), a
      00080B DD 7E FD         [19] 1827 	ld	a, -3 (ix)
      00080E B0               [ 4] 1828 	or	a, b
      00080F DD 77 FD         [19] 1829 	ld	-3 (ix), a
      000812                       1830 00121$:
                                   1831 ;ps_engine.c:241: for (k = 0; k < g_nlayers; k++, sh += 5)
      000812 DD 34 FF         [23] 1832 	inc	-1 (ix)
      000815 DD 7E ED         [19] 1833 	ld	a, -19 (ix)
      000818 C6 05            [ 7] 1834 	add	a, #0x05
      00081A DD 77 ED         [19] 1835 	ld	-19 (ix), a
      00081D 18 88            [12] 1836 	jr	00120$
      00081F                       1837 00112$:
                                   1838 ;ps_engine.c:246: nc = (lev[i] & ~objClear) | objSet;
      00081F DD 5E 04         [19] 1839 	ld	e, 4 (ix)
      000822 16 00            [ 7] 1840 	ld	d, #0x00
      000824 EB               [ 4] 1841 	ex	de, hl
      000825 29               [11] 1842 	add	hl, hl
      000826 29               [11] 1843 	add	hl, hl
      000827 EB               [ 4] 1844 	ex	de, hl
      000828 21rC8r00         [10] 1845 	ld	hl, #_lev
      00082B 19               [11] 1846 	add	hl, de
      00082C DD 75 FE         [19] 1847 	ld	-2 (ix), l
      00082F DD 74 FF         [19] 1848 	ld	-1 (ix), h
      000832 D5               [11] 1849 	push	de
      000833 DD 5E FE         [19] 1850 	ld	e, -2 (ix)
      000836 DD 56 FF         [19] 1851 	ld	d, -1 (ix)
      000839 21 2A 00         [10] 1852 	ld	hl, #42
      00083C 39               [11] 1853 	add	hl, sp
      00083D EB               [ 4] 1854 	ex	de, hl
      00083E 01 04 00         [10] 1855 	ld	bc, #0x0004
      000841 ED B0            [21] 1856 	ldir
      000843 D1               [10] 1857 	pop	de
      000844 DD 7E EE         [19] 1858 	ld	a, -18 (ix)
      000847 2F               [ 4] 1859 	cpl
      000848 4F               [ 4] 1860 	ld	c, a
      000849 DD 7E EF         [19] 1861 	ld	a, -17 (ix)
      00084C 2F               [ 4] 1862 	cpl
      00084D 47               [ 4] 1863 	ld	b, a
      00084E DD 7E F0         [19] 1864 	ld	a, -16 (ix)
      000851 2F               [ 4] 1865 	cpl
      000852 6F               [ 4] 1866 	ld	l, a
                                   1867 ;	spillPairReg hl
                                   1868 ;	spillPairReg hl
      000853 DD 7E F1         [19] 1869 	ld	a, -15 (ix)
      000856 2F               [ 4] 1870 	cpl
      000857 F5               [11] 1871 	push	af
      000858 DD 7E EA         [19] 1872 	ld	a, -22 (ix)
      00085B A1               [ 4] 1873 	and	a, c
      00085C 4F               [ 4] 1874 	ld	c, a
      00085D DD 7E EB         [19] 1875 	ld	a, -21 (ix)
      000860 A0               [ 4] 1876 	and	a, b
      000861 47               [ 4] 1877 	ld	b, a
      000862 DD 7E EC         [19] 1878 	ld	a, -20 (ix)
      000865 A5               [ 4] 1879 	and	a, l
      000866 6F               [ 4] 1880 	ld	l, a
                                   1881 ;	spillPairReg hl
                                   1882 ;	spillPairReg hl
      000867 F1               [10] 1883 	pop	af
      000868 DD A6 ED         [19] 1884 	and	a, -19 (ix)
      00086B 67               [ 4] 1885 	ld	h, a
                                   1886 ;	spillPairReg hl
                                   1887 ;	spillPairReg hl
      00086C 79               [ 4] 1888 	ld	a, c
      00086D DD B6 F2         [19] 1889 	or	a, -14 (ix)
      000870 4F               [ 4] 1890 	ld	c, a
      000871 78               [ 4] 1891 	ld	a, b
      000872 DD B6 F3         [19] 1892 	or	a, -13 (ix)
      000875 47               [ 4] 1893 	ld	b, a
      000876 7D               [ 4] 1894 	ld	a, l
      000877 DD B6 F4         [19] 1895 	or	a, -12 (ix)
      00087A 6F               [ 4] 1896 	ld	l, a
                                   1897 ;	spillPairReg hl
                                   1898 ;	spillPairReg hl
      00087B 7C               [ 4] 1899 	ld	a, h
      00087C DD B6 F5         [19] 1900 	or	a, -11 (ix)
      00087F 67               [ 4] 1901 	ld	h, a
                                   1902 ;	spillPairReg hl
                                   1903 ;	spillPairReg hl
      000880 DD 71 F2         [19] 1904 	ld	-14 (ix), c
      000883 DD 70 F3         [19] 1905 	ld	-13 (ix), b
      000886 DD 75 F4         [19] 1906 	ld	-12 (ix), l
      000889 DD 74 F5         [19] 1907 	ld	-11 (ix), h
                                   1908 ;ps_engine.c:247: nm = (mov[i] & ~movClear) | movSet;
      00088C 21rC8r03         [10] 1909 	ld	hl, #_mov
      00088F 19               [11] 1910 	add	hl, de
      000890 5D               [ 4] 1911 	ld	e, l
      000891 54               [ 4] 1912 	ld	d, h
      000892 23               [ 6] 1913 	inc	hl
      000893 23               [ 6] 1914 	inc	hl
      000894 4E               [ 7] 1915 	ld	c, (hl)
      000895 23               [ 6] 1916 	inc	hl
      000896 46               [ 7] 1917 	ld	b, (hl)
      000897 2B               [ 6] 1918 	dec	hl
      000898 2B               [ 6] 1919 	dec	hl
      000899 7E               [ 7] 1920 	ld	a, (hl)
      00089A 2B               [ 6] 1921 	dec	hl
      00089B 6E               [ 7] 1922 	ld	l, (hl)
                                   1923 ;	spillPairReg hl
      00089C 67               [ 4] 1924 	ld	h, a
                                   1925 ;	spillPairReg hl
                                   1926 ;	spillPairReg hl
      00089D DD 7E F6         [19] 1927 	ld	a, -10 (ix)
      0008A0 2F               [ 4] 1928 	cpl
      0008A1 DD 77 F6         [19] 1929 	ld	-10 (ix), a
      0008A4 DD 7E F7         [19] 1930 	ld	a, -9 (ix)
      0008A7 2F               [ 4] 1931 	cpl
      0008A8 DD 77 F7         [19] 1932 	ld	-9 (ix), a
      0008AB DD 7E F8         [19] 1933 	ld	a, -8 (ix)
      0008AE 2F               [ 4] 1934 	cpl
      0008AF DD 77 F8         [19] 1935 	ld	-8 (ix), a
      0008B2 DD 7E F9         [19] 1936 	ld	a, -7 (ix)
      0008B5 2F               [ 4] 1937 	cpl
      0008B6 DD 77 F9         [19] 1938 	ld	-7 (ix), a
      0008B9 7D               [ 4] 1939 	ld	a, l
      0008BA DD A6 F6         [19] 1940 	and	a, -10 (ix)
      0008BD DD 77 EE         [19] 1941 	ld	-18 (ix), a
      0008C0 7C               [ 4] 1942 	ld	a, h
      0008C1 DD A6 F7         [19] 1943 	and	a, -9 (ix)
      0008C4 DD 77 EF         [19] 1944 	ld	-17 (ix), a
      0008C7 79               [ 4] 1945 	ld	a, c
      0008C8 DD A6 F8         [19] 1946 	and	a, -8 (ix)
      0008CB DD 77 F0         [19] 1947 	ld	-16 (ix), a
      0008CE 78               [ 4] 1948 	ld	a, b
      0008CF DD A6 F9         [19] 1949 	and	a, -7 (ix)
      0008D2 DD 77 F1         [19] 1950 	ld	-15 (ix), a
      0008D5 DD 7E EE         [19] 1951 	ld	a, -18 (ix)
      0008D8 DD B6 FA         [19] 1952 	or	a, -6 (ix)
      0008DB DD 77 F6         [19] 1953 	ld	-10 (ix), a
      0008DE DD 7E EF         [19] 1954 	ld	a, -17 (ix)
      0008E1 DD B6 FB         [19] 1955 	or	a, -5 (ix)
      0008E4 DD 77 F7         [19] 1956 	ld	-9 (ix), a
      0008E7 DD 7E F0         [19] 1957 	ld	a, -16 (ix)
      0008EA DD B6 FC         [19] 1958 	or	a, -4 (ix)
      0008ED DD 77 F8         [19] 1959 	ld	-8 (ix), a
      0008F0 DD 7E F1         [19] 1960 	ld	a, -15 (ix)
      0008F3 DD B6 FD         [19] 1961 	or	a, -3 (ix)
      0008F6 DD 77 F9         [19] 1962 	ld	-7 (ix), a
      0008F9 DD 7E F6         [19] 1963 	ld	a, -10 (ix)
      0008FC DD 77 FA         [19] 1964 	ld	-6 (ix), a
      0008FF DD 7E F7         [19] 1965 	ld	a, -9 (ix)
      000902 DD 77 FB         [19] 1966 	ld	-5 (ix), a
      000905 DD 7E F8         [19] 1967 	ld	a, -8 (ix)
      000908 DD 77 FC         [19] 1968 	ld	-4 (ix), a
      00090B DD 7E F9         [19] 1969 	ld	a, -7 (ix)
      00090E DD 77 FD         [19] 1970 	ld	-3 (ix), a
                                   1971 ;ps_engine.c:248: if (nc == lev[i] && nm == mov[i]) return 0;
      000911 DD 7E F2         [19] 1972 	ld	a, -14 (ix)
      000914 DD 96 EA         [19] 1973 	sub	a, -22 (ix)
      000917 20 32            [12] 1974 	jr	NZ, 00114$
      000919 DD 7E F3         [19] 1975 	ld	a, -13 (ix)
      00091C DD 96 EB         [19] 1976 	sub	a, -21 (ix)
      00091F 20 2A            [12] 1977 	jr	NZ, 00114$
      000921 DD 7E F4         [19] 1978 	ld	a, -12 (ix)
      000924 DD 96 EC         [19] 1979 	sub	a, -20 (ix)
      000927 20 22            [12] 1980 	jr	NZ, 00114$
      000929 DD 7E F5         [19] 1981 	ld	a, -11 (ix)
      00092C DD 96 ED         [19] 1982 	sub	a, -19 (ix)
      00092F 20 1A            [12] 1983 	jr	NZ, 00114$
      000931 7D               [ 4] 1984 	ld	a, l
      000932 DD 96 FA         [19] 1985 	sub	a, -6 (ix)
      000935 20 14            [12] 1986 	jr	NZ, 00114$
      000937 7C               [ 4] 1987 	ld	a, h
      000938 DD 96 FB         [19] 1988 	sub	a, -5 (ix)
      00093B 20 0E            [12] 1989 	jr	NZ, 00114$
      00093D DD 6E FC         [19] 1990 	ld	l, -4 (ix)
      000940 DD 66 FD         [19] 1991 	ld	h, -3 (ix)
      000943 BF               [ 4] 1992 	cp	a, a
      000944 ED 42            [15] 1993 	sbc	hl, bc
      000946 20 03            [12] 1994 	jr	NZ, 00114$
      000948 AF               [ 4] 1995 	xor	a, a
      000949 18 1C            [12] 1996 	jr	00122$
      00094B                       1997 00114$:
                                   1998 ;ps_engine.c:249: lev[i] = nc; mov[i] = nm;
      00094B D5               [11] 1999 	push	de
      00094C DD 5E FE         [19] 2000 	ld	e, -2 (ix)
      00094F DD 56 FF         [19] 2001 	ld	d, -1 (ix)
      000952 21 32 00         [10] 2002 	ld	hl, #50
      000955 39               [11] 2003 	add	hl, sp
      000956 01 04 00         [10] 2004 	ld	bc, #0x0004
      000959 ED B0            [21] 2005 	ldir
      00095B D1               [10] 2006 	pop	de
      00095C 21 38 00         [10] 2007 	ld	hl, #56
      00095F 39               [11] 2008 	add	hl, sp
      000960 01 04 00         [10] 2009 	ld	bc, #0x0004
      000963 ED B0            [21] 2010 	ldir
                                   2011 ;ps_engine.c:250: return 1;
      000965 3E 01            [ 7] 2012 	ld	a, #0x01
      000967                       2013 00122$:
                                   2014 ;ps_engine.c:251: }
      000967 DD F9            [10] 2015 	ld	sp, ix
      000969 DD E1            [14] 2016 	pop	ix
      00096B E1               [10] 2017 	pop	hl
      00096C 33               [ 6] 2018 	inc	sp
      00096D E9               [ 4] 2019 	jp	(hl)
                                   2020 ;ps_engine.c:254: static u8 row_matches_at(u8 r, u8 i) {
                                   2021 ;	---------------------------------
                                   2022 ; Function row_matches_at
                                   2023 ; ---------------------------------
      00096E                       2024 _row_matches_at:
      00096E DD E5            [15] 2025 	push	ix
      000970 DD 21 00 00      [14] 2026 	ld	ix,#0
      000974 DD 39            [15] 2027 	add	ix,sp
      000976 F5               [11] 2028 	push	af
      000977 F5               [11] 2029 	push	af
      000978 4F               [ 4] 2030 	ld	c, a
      000979 45               [ 4] 2031 	ld	b, l
                                   2032 ;ps_engine.c:255: const u8 *p = rule_rows[r] + 1;
      00097A 11rEEr15         [10] 2033 	ld	de, #_rule_rows+0
      00097D 69               [ 4] 2034 	ld	l, c
                                   2035 ;	spillPairReg hl
                                   2036 ;	spillPairReg hl
      00097E 26 00            [ 7] 2037 	ld	h, #0x00
                                   2038 ;	spillPairReg hl
                                   2039 ;	spillPairReg hl
      000980 29               [11] 2040 	add	hl, hl
      000981 19               [11] 2041 	add	hl, de
      000982 5E               [ 7] 2042 	ld	e, (hl)
      000983 23               [ 6] 2043 	inc	hl
      000984 56               [ 7] 2044 	ld	d, (hl)
      000985 13               [ 6] 2045 	inc	de
      000986 33               [ 6] 2046 	inc	sp
      000987 33               [ 6] 2047 	inc	sp
      000988 D5               [11] 2048 	push	de
                                   2049 ;ps_engine.c:256: u8 k, n = rule_rowLen[r];
      000989 11rFAr15         [10] 2050 	ld	de, #_rule_rowLen+0
      00098C 69               [ 4] 2051 	ld	l, c
      00098D 26 00            [ 7] 2052 	ld	h, #0x00
      00098F 19               [11] 2053 	add	hl, de
      000990 4E               [ 7] 2054 	ld	c, (hl)
                                   2055 ;ps_engine.c:257: int idx = i;
      000991 DD 70 FE         [19] 2056 	ld	-2 (ix), b
      000994 DD 36 FF 00      [19] 2057 	ld	-1 (ix), #0x00
                                   2058 ;ps_engine.c:258: for (k = 0; k < n; k++) {
      000998 06 00            [ 7] 2059 	ld	b, #0x00
      00099A                       2060 00105$:
      00099A 78               [ 4] 2061 	ld	a, b
      00099B 91               [ 4] 2062 	sub	a, c
      00099C 30 34            [12] 2063 	jr	NC, 00103$
                                   2064 ;ps_engine.c:259: if (!cell_matches(p, (u8)idx)) return 0;
      00099E DD 7E FE         [19] 2065 	ld	a, -2 (ix)
      0009A1 C5               [11] 2066 	push	bc
      0009A2 F5               [11] 2067 	push	af
      0009A3 33               [ 6] 2068 	inc	sp
      0009A4 DD 6E FC         [19] 2069 	ld	l, -4 (ix)
                                   2070 ;	spillPairReg hl
                                   2071 ;	spillPairReg hl
      0009A7 DD 66 FD         [19] 2072 	ld	h, -3 (ix)
                                   2073 ;	spillPairReg hl
                                   2074 ;	spillPairReg hl
      0009AA CDr2Fr04         [17] 2075 	call	_cell_matches
      0009AD C1               [10] 2076 	pop	bc
      0009AE B7               [ 4] 2077 	or	a,a
      0009AF 28 23            [12] 2078 	jr	Z, 00107$
                                   2079 ;ps_engine.c:260: p = cell_skip(p);
      0009B1 59               [ 4] 2080 	ld	e, c
      0009B2 50               [ 4] 2081 	ld	d, b
      0009B3 E1               [10] 2082 	pop	hl
      0009B4 E5               [11] 2083 	push	hl
      0009B5 D5               [11] 2084 	push	de
      0009B6 CDr16r04         [17] 2085 	call	_cell_skip
      0009B9 C1               [10] 2086 	pop	bc
      0009BA 33               [ 6] 2087 	inc	sp
      0009BB 33               [ 6] 2088 	inc	sp
      0009BC D5               [11] 2089 	push	de
                                   2090 ;ps_engine.c:261: idx += rule_d;
      0009BD DD 7E FE         [19] 2091 	ld	a, -2 (ix)
      0009C0 21rEAr15         [10] 2092 	ld	hl, #_rule_d
      0009C3 86               [ 7] 2093 	add	a, (hl)
      0009C4 DD 77 FE         [19] 2094 	ld	-2 (ix), a
      0009C7 DD 7E FF         [19] 2095 	ld	a, -1 (ix)
      0009CA 23               [ 6] 2096 	inc	hl
      0009CB 8E               [ 7] 2097 	adc	a, (hl)
      0009CC DD 77 FF         [19] 2098 	ld	-1 (ix), a
                                   2099 ;ps_engine.c:258: for (k = 0; k < n; k++) {
      0009CF 04               [ 4] 2100 	inc	b
      0009D0 18 C8            [12] 2101 	jr	00105$
      0009D2                       2102 00103$:
                                   2103 ;ps_engine.c:263: return 1;
      0009D2 3E 01            [ 7] 2104 	ld	a, #0x01
      0009D4                       2105 00107$:
                                   2106 ;ps_engine.c:264: }
      0009D4 DD F9            [10] 2107 	ld	sp, ix
      0009D6 DD E1            [14] 2108 	pop	ix
      0009D8 C9               [10] 2109 	ret
                                   2110 ;ps_engine.c:266: static void row_apply_at(u8 r, u8 i) {
                                   2111 ;	---------------------------------
                                   2112 ; Function row_apply_at
                                   2113 ; ---------------------------------
      0009D9                       2114 _row_apply_at:
      0009D9 DD E5            [15] 2115 	push	ix
      0009DB DD 21 00 00      [14] 2116 	ld	ix,#0
      0009DF DD 39            [15] 2117 	add	ix,sp
      0009E1 F5               [11] 2118 	push	af
      0009E2 57               [ 4] 2119 	ld	d, a
      0009E3 5D               [ 4] 2120 	ld	e, l
                                   2121 ;ps_engine.c:267: const u8 *p = rule_rows[r] + 1;
      0009E4 01rEEr15         [10] 2122 	ld	bc, #_rule_rows+0
      0009E7 6A               [ 4] 2123 	ld	l, d
                                   2124 ;	spillPairReg hl
                                   2125 ;	spillPairReg hl
      0009E8 26 00            [ 7] 2126 	ld	h, #0x00
                                   2127 ;	spillPairReg hl
                                   2128 ;	spillPairReg hl
      0009EA 29               [11] 2129 	add	hl, hl
      0009EB 09               [11] 2130 	add	hl, bc
      0009EC 4E               [ 7] 2131 	ld	c, (hl)
      0009ED 23               [ 6] 2132 	inc	hl
      0009EE 46               [ 7] 2133 	ld	b, (hl)
      0009EF 03               [ 6] 2134 	inc	bc
      0009F0 33               [ 6] 2135 	inc	sp
      0009F1 33               [ 6] 2136 	inc	sp
      0009F2 C5               [11] 2137 	push	bc
                                   2138 ;ps_engine.c:268: u8 k, n = rule_rowLen[r];
      0009F3 01rFAr15         [10] 2139 	ld	bc, #_rule_rowLen+0
      0009F6 6A               [ 4] 2140 	ld	l, d
      0009F7 26 00            [ 7] 2141 	ld	h, #0x00
      0009F9 09               [11] 2142 	add	hl, bc
      0009FA 4E               [ 7] 2143 	ld	c, (hl)
                                   2144 ;ps_engine.c:269: int idx = i;
                                   2145 ;ps_engine.c:270: for (k = 0; k < n; k++) {
      0009FB 16 00            [ 7] 2146 	ld	d, #0x00
      0009FD 42               [ 4] 2147 	ld	b, d
      0009FE                       2148 00105$:
      0009FE 78               [ 4] 2149 	ld	a, b
      0009FF 91               [ 4] 2150 	sub	a, c
      000A00 30 38            [12] 2151 	jr	NC, 00107$
                                   2152 ;ps_engine.c:271: if (cell_apply(p, (u8)idx)) rule_changed = 1;
      000A02 7B               [ 4] 2153 	ld	a, e
      000A03 C5               [11] 2154 	push	bc
      000A04 D5               [11] 2155 	push	de
      000A05 F5               [11] 2156 	push	af
      000A06 33               [ 6] 2157 	inc	sp
      000A07 DD 6E FE         [19] 2158 	ld	l, -2 (ix)
                                   2159 ;	spillPairReg hl
                                   2160 ;	spillPairReg hl
      000A0A DD 66 FF         [19] 2161 	ld	h, -1 (ix)
                                   2162 ;	spillPairReg hl
                                   2163 ;	spillPairReg hl
      000A0D CDrA4r05         [17] 2164 	call	_cell_apply
      000A10 D1               [10] 2165 	pop	de
      000A11 C1               [10] 2166 	pop	bc
      000A12 B7               [ 4] 2167 	or	a, a
      000A13 28 05            [12] 2168 	jr	Z, 00102$
      000A15 21r07r16         [10] 2169 	ld	hl, #_rule_changed
      000A18 36 01            [10] 2170 	ld	(hl), #0x01
      000A1A                       2171 00102$:
                                   2172 ;ps_engine.c:272: p = cell_skip(p);
      000A1A C5               [11] 2173 	push	bc
      000A1B D5               [11] 2174 	push	de
      000A1C DD 6E FE         [19] 2175 	ld	l, -2 (ix)
                                   2176 ;	spillPairReg hl
                                   2177 ;	spillPairReg hl
      000A1F DD 66 FF         [19] 2178 	ld	h, -1 (ix)
                                   2179 ;	spillPairReg hl
                                   2180 ;	spillPairReg hl
      000A22 CDr16r04         [17] 2181 	call	_cell_skip
      000A25 EB               [ 4] 2182 	ex	de, hl
      000A26 D1               [10] 2183 	pop	de
      000A27 C1               [10] 2184 	pop	bc
      000A28 E3               [19] 2185 	ex	(sp), hl
                                   2186 ;ps_engine.c:273: idx += rule_d;
      000A29 7B               [ 4] 2187 	ld	a, e
      000A2A FD 21rEAr15      [14] 2188 	ld	iy, #_rule_d
      000A2E FD 86 00         [19] 2189 	add	a, 0 (iy)
      000A31 5F               [ 4] 2190 	ld	e, a
      000A32 7A               [ 4] 2191 	ld	a, d
      000A33 FD 8E 01         [19] 2192 	adc	a, 1 (iy)
      000A36 57               [ 4] 2193 	ld	d, a
                                   2194 ;ps_engine.c:270: for (k = 0; k < n; k++) {
      000A37 04               [ 4] 2195 	inc	b
      000A38 18 C4            [12] 2196 	jr	00105$
      000A3A                       2197 00107$:
                                   2198 ;ps_engine.c:275: }
      000A3A DD F9            [10] 2199 	ld	sp, ix
      000A3C DD E1            [14] 2200 	pop	ix
      000A3E C9               [10] 2201 	ret
                                   2202 ;ps_engine.c:279: static void scan_row(u8 r) {
                                   2203 ;	---------------------------------
                                   2204 ; Function scan_row
                                   2205 ; ---------------------------------
      000A3F                       2206 _scan_row:
      000A3F DD E5            [15] 2207 	push	ix
      000A41 DD 21 00 00      [14] 2208 	ld	ix,#0
      000A45 DD 39            [15] 2209 	add	ix,sp
      000A47 21 FA FF         [10] 2210 	ld	hl, #-6
      000A4A 39               [11] 2211 	add	hl, sp
      000A4B F9               [ 6] 2212 	ld	sp, hl
      000A4C DD 77 FD         [19] 2213 	ld	-3 (ix), a
                                   2214 ;ps_engine.c:280: u8 n = rule_rowLen[r];
      000A4F 01rFAr15         [10] 2215 	ld	bc, #_rule_rowLen+0
      000A52 DD 6E FD         [19] 2216 	ld	l, -3 (ix)
      000A55 26 00            [ 7] 2217 	ld	h, #0x00
      000A57 09               [11] 2218 	add	hl, bc
      000A58 5E               [ 7] 2219 	ld	e, (hl)
                                   2220 ;ps_engine.c:281: u8 x0 = 0, y0 = 0, x1 = g_w, y1 = g_h;   /* exclusive bounds              */
      000A59 0E 00            [ 7] 2221 	ld	c, #0x00
      000A5B DD 36 FA 00      [19] 2222 	ld	-6 (ix), #0x00
      000A5F 3ArCAr15         [13] 2223 	ld	a, (_g_w+0)
      000A62 DD 77 FB         [19] 2224 	ld	-5 (ix), a
      000A65 3ArCBr15         [13] 2225 	ld	a, (_g_h+0)
      000A68 DD 77 FC         [19] 2226 	ld	-4 (ix), a
                                   2227 ;ps_engine.c:284: if (rule_dx > 0) { x1 = g_w - n + 1; }
      000A6B AF               [ 4] 2228 	xor	a, a
      000A6C 21rE8r15         [10] 2229 	ld	hl, #_rule_dx
      000A6F 96               [ 7] 2230 	sub	a, (hl)
      000A70 E2r75r0A         [10] 2231 	jp	PO, 00242$
      000A73 EE 80            [ 7] 2232 	xor	a, #0x80
      000A75                       2233 00242$:
      000A75 F2r82r0A         [10] 2234 	jp	P, 00108$
      000A78 3ArCAr15         [13] 2235 	ld	a, (_g_w+0)
      000A7B 93               [ 4] 2236 	sub	a, e
      000A7C 3C               [ 4] 2237 	inc	a
      000A7D DD 77 FB         [19] 2238 	ld	-5 (ix), a
      000A80 18 26            [12] 2239 	jr	00109$
      000A82                       2240 00108$:
                                   2241 ;ps_engine.c:285: else if (rule_dx < 0) { x0 = n - 1; }
      000A82 43               [ 4] 2242 	ld	b, e
      000A83 05               [ 4] 2243 	dec	b
      000A84 3ArE8r15         [13] 2244 	ld	a, (_rule_dx+0)
      000A87 CB 7F            [ 8] 2245 	bit	7, a
      000A89 28 03            [12] 2246 	jr	Z, 00105$
      000A8B 48               [ 4] 2247 	ld	c, b
      000A8C 18 1A            [12] 2248 	jr	00109$
      000A8E                       2249 00105$:
                                   2250 ;ps_engine.c:286: else if (rule_dy > 0) { y1 = g_h - n + 1; }
      000A8E AF               [ 4] 2251 	xor	a, a
      000A8F 21rE9r15         [10] 2252 	ld	hl, #_rule_dy
      000A92 96               [ 7] 2253 	sub	a, (hl)
      000A93 E2r98r0A         [10] 2254 	jp	PO, 00243$
      000A96 EE 80            [ 7] 2255 	xor	a, #0x80
      000A98                       2256 00243$:
      000A98 F2rA5r0A         [10] 2257 	jp	P, 00102$
      000A9B 3ArCBr15         [13] 2258 	ld	a, (_g_h+0)
      000A9E 93               [ 4] 2259 	sub	a, e
      000A9F 3C               [ 4] 2260 	inc	a
      000AA0 DD 77 FC         [19] 2261 	ld	-4 (ix), a
      000AA3 18 03            [12] 2262 	jr	00109$
      000AA5                       2263 00102$:
                                   2264 ;ps_engine.c:287: else { y0 = n - 1; }
      000AA5 DD 70 FA         [19] 2265 	ld	-6 (ix), b
      000AA8                       2266 00109$:
                                   2267 ;ps_engine.c:288: if (x1 > g_w || y1 > g_h) return;        /* row longer than board         */
      000AA8 3ArCAr15         [13] 2268 	ld	a, (#_g_w)
      000AAB DD 96 FB         [19] 2269 	sub	a, -5 (ix)
      000AAE DAr8Br0B         [10] 2270 	jp	C,00143$
      000AB1 3ArCBr15         [13] 2271 	ld	a, (#_g_h)
      000AB4 DD 96 FC         [19] 2272 	sub	a, -4 (ix)
                                   2273 ;ps_engine.c:290: for (x = x0; x < x1; x++) {
      000AB7 DAr8Br0B         [10] 2274 	jp	C,00143$
      000ABA                       2275 00141$:
      000ABA 79               [ 4] 2276 	ld	a, c
      000ABB DD 96 FB         [19] 2277 	sub	a, -5 (ix)
      000ABE D2r8Br0B         [10] 2278 	jp	NC, 00143$
                                   2279 ;ps_engine.c:291: i = (u8)(x * g_h + y0);
      000AC1 3ArCBr15         [13] 2280 	ld	a, (#_g_h + 0)
      000AC4 5F               [ 4] 2281 	ld	e, a
      000AC5 61               [ 4] 2282 	ld	h, c
                                   2283 ;	spillPairReg hl
                                   2284 ;	spillPairReg hl
      000AC6 2E 00            [ 7] 2285 	ld	l, #0x00
      000AC8 55               [ 4] 2286 	ld	d, l
      000AC9 06 08            [ 7] 2287 	ld	b, #0x08
      000ACB                       2288 00244$:
      000ACB 29               [11] 2289 	add	hl, hl
      000ACC 30 01            [12] 2290 	jr	NC, 00245$
      000ACE 19               [11] 2291 	add	hl, de
      000ACF                       2292 00245$:
      000ACF 10 FA            [13] 2293 	djnz	00244$
      000AD1 7D               [ 4] 2294 	ld	a, l
      000AD2 DD 86 FA         [19] 2295 	add	a, -6 (ix)
      000AD5 DD 77 FE         [19] 2296 	ld	-2 (ix), a
                                   2297 ;ps_engine.c:292: for (y = y0; y < y1; y++, i++) {
      000AD8 DD 7E FA         [19] 2298 	ld	a, -6 (ix)
      000ADB DD 77 FF         [19] 2299 	ld	-1 (ix), a
      000ADE                       2300 00139$:
      000ADE DD 7E FF         [19] 2301 	ld	a, -1 (ix)
      000AE1 DD 96 FC         [19] 2302 	sub	a, -4 (ix)
      000AE4 D2r87r0B         [10] 2303 	jp	NC, 00142$
                                   2304 ;ps_engine.c:293: if (!row_matches_at(r, i)) continue;
      000AE7 C5               [11] 2305 	push	bc
      000AE8 DD 6E FE         [19] 2306 	ld	l, -2 (ix)
                                   2307 ;	spillPairReg hl
                                   2308 ;	spillPairReg hl
      000AEB DD 7E FD         [19] 2309 	ld	a, -3 (ix)
      000AEE CDr6Er09         [17] 2310 	call	_row_matches_at
      000AF1 C1               [10] 2311 	pop	bc
      000AF2 B7               [ 4] 2312 	or	a, a
      000AF3 CAr7Er0B         [10] 2313 	jp	Z, 00129$
                                   2314 ;ps_engine.c:294: rule_pos[r] = i;
      000AF6 3Er00            [ 7] 2315 	ld	a, #<(_rule_pos)
      000AF8 DD 86 FD         [19] 2316 	add	a, -3 (ix)
      000AFB 5F               [ 4] 2317 	ld	e, a
      000AFC 3Es16            [ 7] 2318 	ld	a, #>(_rule_pos)
      000AFE CE 00            [ 7] 2319 	adc	a, #0x00
      000B00 57               [ 4] 2320 	ld	d, a
      000B01 DD 7E FE         [19] 2321 	ld	a, -2 (ix)
      000B04 12               [ 7] 2322 	ld	(de), a
                                   2323 ;ps_engine.c:295: if (r + 1 < rule_rowCount) {
      000B05 DD 5E FD         [19] 2324 	ld	e, -3 (ix)
      000B08 16 00            [ 7] 2325 	ld	d, #0x00
      000B0A 13               [ 6] 2326 	inc	de
      000B0B 3ArECr15         [13] 2327 	ld	a, (_rule_rowCount+0)
      000B0E 6F               [ 4] 2328 	ld	l, a
                                   2329 ;	spillPairReg hl
                                   2330 ;	spillPairReg hl
      000B0F 06 00            [ 7] 2331 	ld	b, #0x00
      000B11 7B               [ 4] 2332 	ld	a, e
      000B12 95               [ 4] 2333 	sub	a, l
      000B13 7A               [ 4] 2334 	ld	a, d
      000B14 98               [ 4] 2335 	sbc	a, b
      000B15 E2r1Ar0B         [10] 2336 	jp	PO, 00246$
      000B18 EE 80            [ 7] 2337 	xor	a, #0x80
      000B1A                       2338 00246$:
      000B1A F2r35r0B         [10] 2339 	jp	P, 00127$
                                   2340 ;ps_engine.c:296: scan_row(r + 1);
      000B1D DD 46 FD         [19] 2341 	ld	b, -3 (ix)
      000B20 04               [ 4] 2342 	inc	b
      000B21 C5               [11] 2343 	push	bc
      000B22 78               [ 4] 2344 	ld	a, b
      000B23 CDr3Fr0A         [17] 2345 	call	_scan_row
      000B26 C1               [10] 2346 	pop	bc
                                   2347 ;ps_engine.c:297: if (rule_matched && !rule_hasRepl) return;
      000B27 3Ar06r16         [13] 2348 	ld	a, (_rule_matched+0)
      000B2A B7               [ 4] 2349 	or	a, a
      000B2B 28 51            [12] 2350 	jr	Z, 00129$
      000B2D 3ArEDr15         [13] 2351 	ld	a, (_rule_hasRepl+0)
      000B30 B7               [ 4] 2352 	or	a, a
      000B31 20 4B            [12] 2353 	jr	NZ, 00129$
      000B33 18 56            [12] 2354 	jr	00143$
      000B35                       2355 00127$:
                                   2356 ;ps_engine.c:299: rule_matched = 1;
      000B35 21r06r16         [10] 2357 	ld	hl, #_rule_matched
      000B38 36 01            [10] 2358 	ld	(hl), #0x01
                                   2359 ;ps_engine.c:300: if (!rule_hasRepl) return;
      000B3A 3ArEDr15         [13] 2360 	ld	a, (_rule_hasRepl+0)
      000B3D B7               [ 4] 2361 	or	a, a
                                   2362 ;ps_engine.c:303: for (k = 0; k < rule_rowCount; k++)
      000B3E 28 4B            [12] 2363 	jr	Z, 00143$
      000B40 1E 00            [ 7] 2364 	ld	e, #0x00
      000B42                       2365 00133$:
      000B42 21rECr15         [10] 2366 	ld	hl, #_rule_rowCount
      000B45 7B               [ 4] 2367 	ld	a, e
      000B46 96               [ 7] 2368 	sub	a, (hl)
      000B47 30 15            [12] 2369 	jr	NC, 00122$
                                   2370 ;ps_engine.c:304: if (!row_matches_at(k, rule_pos[k])) break;
      000B49 21r00r16         [10] 2371 	ld	hl, #_rule_pos
      000B4C 16 00            [ 7] 2372 	ld	d, #0x00
      000B4E 19               [11] 2373 	add	hl, de
      000B4F 6E               [ 7] 2374 	ld	l, (hl)
                                   2375 ;	spillPairReg hl
      000B50 C5               [11] 2376 	push	bc
      000B51 D5               [11] 2377 	push	de
      000B52 7B               [ 4] 2378 	ld	a, e
      000B53 CDr6Er09         [17] 2379 	call	_row_matches_at
      000B56 D1               [10] 2380 	pop	de
      000B57 C1               [10] 2381 	pop	bc
      000B58 B7               [ 4] 2382 	or	a, a
      000B59 28 03            [12] 2383 	jr	Z, 00122$
                                   2384 ;ps_engine.c:303: for (k = 0; k < rule_rowCount; k++)
      000B5B 1C               [ 4] 2385 	inc	e
      000B5C 18 E4            [12] 2386 	jr	00133$
      000B5E                       2387 00122$:
                                   2388 ;ps_engine.c:305: if (k == rule_rowCount)
      000B5E 3ArECr15         [13] 2389 	ld	a, (_rule_rowCount+0)
                                   2390 ;ps_engine.c:306: for (k = 0; k < rule_rowCount; k++)
      000B61 93               [ 4] 2391 	sub	a,e
      000B62 20 1A            [12] 2392 	jr	NZ, 00129$
      000B64 5F               [ 4] 2393 	ld	e,a
      000B65                       2394 00136$:
      000B65 21rECr15         [10] 2395 	ld	hl, #_rule_rowCount
      000B68 7B               [ 4] 2396 	ld	a, e
      000B69 96               [ 7] 2397 	sub	a, (hl)
      000B6A 30 12            [12] 2398 	jr	NC, 00129$
                                   2399 ;ps_engine.c:307: row_apply_at(k, rule_pos[k]);
      000B6C 21r00r16         [10] 2400 	ld	hl, #_rule_pos
      000B6F 16 00            [ 7] 2401 	ld	d, #0x00
      000B71 19               [11] 2402 	add	hl, de
      000B72 6E               [ 7] 2403 	ld	l, (hl)
                                   2404 ;	spillPairReg hl
      000B73 C5               [11] 2405 	push	bc
      000B74 D5               [11] 2406 	push	de
      000B75 7B               [ 4] 2407 	ld	a, e
      000B76 CDrD9r09         [17] 2408 	call	_row_apply_at
      000B79 D1               [10] 2409 	pop	de
      000B7A C1               [10] 2410 	pop	bc
                                   2411 ;ps_engine.c:306: for (k = 0; k < rule_rowCount; k++)
      000B7B 1C               [ 4] 2412 	inc	e
      000B7C 18 E7            [12] 2413 	jr	00136$
      000B7E                       2414 00129$:
                                   2415 ;ps_engine.c:292: for (y = y0; y < y1; y++, i++) {
      000B7E DD 34 FF         [23] 2416 	inc	-1 (ix)
      000B81 DD 34 FE         [23] 2417 	inc	-2 (ix)
      000B84 C3rDEr0A         [10] 2418 	jp	00139$
      000B87                       2419 00142$:
                                   2420 ;ps_engine.c:290: for (x = x0; x < x1; x++) {
      000B87 0C               [ 4] 2421 	inc	c
      000B88 C3rBAr0A         [10] 2422 	jp	00141$
      000B8B                       2423 00143$:
                                   2424 ;ps_engine.c:311: }
      000B8B DD F9            [10] 2425 	ld	sp, ix
      000B8D DD E1            [14] 2426 	pop	ix
      000B8F C9               [10] 2427 	ret
                                   2428 ;ps_engine.c:314: static u8 rule_try_apply(const u8 *p) {
                                   2429 ;	---------------------------------
                                   2430 ; Function rule_try_apply
                                   2431 ; ---------------------------------
      000B90                       2432 _rule_try_apply:
      000B90 DD E5            [15] 2433 	push	ix
      000B92 DD 21 00 00      [14] 2434 	ld	ix,#0
      000B96 DD 39            [15] 2435 	add	ix,sp
      000B98 F5               [11] 2436 	push	af
      000B99 F5               [11] 2437 	push	af
      000B9A EB               [ 4] 2438 	ex	de, hl
                                   2439 ;ps_engine.c:317: p += 2;                                  /* byteLen                       */
      000B9B 13               [ 6] 2440 	inc	de
      000B9C 13               [ 6] 2441 	inc	de
                                   2442 ;ps_engine.c:318: dir = *p++;
      000B9D 1A               [ 7] 2443 	ld	a, (de)
      000B9E 4F               [ 4] 2444 	ld	c, a
      000B9F 13               [ 6] 2445 	inc	de
                                   2446 ;ps_engine.c:319: rule_hasRepl = *p++ & 1;
      000BA0 1A               [ 7] 2447 	ld	a, (de)
      000BA1 13               [ 6] 2448 	inc	de
      000BA2 E6 01            [ 7] 2449 	and	a, #0x01
      000BA4 32rEDr15         [13] 2450 	ld	(_rule_hasRepl+0), a
                                   2451 ;ps_engine.c:320: cmd = *p++;
      000BA7 1A               [ 7] 2452 	ld	a, (de)
      000BA8 DD 77 FC         [19] 2453 	ld	-4 (ix), a
      000BAB 13               [ 6] 2454 	inc	de
                                   2455 ;ps_engine.c:321: msg = *p++;
      000BAC 1A               [ 7] 2456 	ld	a, (de)
      000BAD DD 77 FD         [19] 2457 	ld	-3 (ix), a
      000BB0 13               [ 6] 2458 	inc	de
                                   2459 ;ps_engine.c:322: rule_rowCount = *p++;
      000BB1 1A               [ 7] 2460 	ld	a, (de)
      000BB2 32rECr15         [13] 2461 	ld	(_rule_rowCount+0), a
      000BB5 13               [ 6] 2462 	inc	de
      000BB6 DD 73 FE         [19] 2463 	ld	-2 (ix), e
      000BB9 DD 72 FF         [19] 2464 	ld	-1 (ix), d
                                   2465 ;ps_engine.c:324: rule_dx = 0; rule_dy = 0;
      000BBC 21rE8r15         [10] 2466 	ld	hl, #_rule_dx
      000BBF 36 00            [10] 2467 	ld	(hl), #0x00
      000BC1 21rE9r15         [10] 2468 	ld	hl, #_rule_dy
      000BC4 36 00            [10] 2469 	ld	(hl), #0x00
                                   2470 ;ps_engine.c:325: switch (dir) {
      000BC6 79               [ 4] 2471 	ld	a, c
      000BC7 3D               [ 4] 2472 	dec	a
      000BC8 28 0B            [12] 2473 	jr	Z, 00101$
      000BCA 79               [ 4] 2474 	ld	a,c
      000BCB FE 02            [ 7] 2475 	cp	a,#0x02
      000BCD 28 0D            [12] 2476 	jr	Z, 00102$
      000BCF D6 04            [ 7] 2477 	sub	a, #0x04
      000BD1 28 10            [12] 2478 	jr	Z, 00103$
      000BD3 18 15            [12] 2479 	jr	00104$
                                   2480 ;ps_engine.c:326: case 1: rule_dy = -1; break;
      000BD5                       2481 00101$:
      000BD5 21rE9r15         [10] 2482 	ld	hl, #_rule_dy
      000BD8 36 FF            [10] 2483 	ld	(hl), #0xff
      000BDA 18 13            [12] 2484 	jr	00105$
                                   2485 ;ps_engine.c:327: case 2: rule_dy =  1; break;
      000BDC                       2486 00102$:
      000BDC 21rE9r15         [10] 2487 	ld	hl, #_rule_dy
      000BDF 36 01            [10] 2488 	ld	(hl), #0x01
      000BE1 18 0C            [12] 2489 	jr	00105$
                                   2490 ;ps_engine.c:328: case 4: rule_dx = -1; break;
      000BE3                       2491 00103$:
      000BE3 21rE8r15         [10] 2492 	ld	hl, #_rule_dx
      000BE6 36 FF            [10] 2493 	ld	(hl), #0xff
      000BE8 18 05            [12] 2494 	jr	00105$
                                   2495 ;ps_engine.c:329: default: rule_dx = 1; break;
      000BEA                       2496 00104$:
      000BEA 21rE8r15         [10] 2497 	ld	hl, #_rule_dx
      000BED 36 01            [10] 2498 	ld	(hl), #0x01
                                   2499 ;ps_engine.c:330: }
      000BEF                       2500 00105$:
                                   2501 ;ps_engine.c:331: rule_d = (int)rule_dx * g_h + rule_dy;
      000BEF 3ArE8r15         [13] 2502 	ld	a, (_rule_dx+0)
      000BF2 6F               [ 4] 2503 	ld	l, a
                                   2504 ;	spillPairReg hl
                                   2505 ;	spillPairReg hl
      000BF3 07               [ 4] 2506 	rlca
      000BF4 9F               [ 4] 2507 	sbc	a, a
      000BF5 67               [ 4] 2508 	ld	h, a
                                   2509 ;	spillPairReg hl
                                   2510 ;	spillPairReg hl
      000BF6 3ArCBr15         [13] 2511 	ld	a, (_g_h+0)
      000BF9 5F               [ 4] 2512 	ld	e, a
      000BFA 16 00            [ 7] 2513 	ld	d, #0x00
      000BFC CDr00r00         [17] 2514 	call	__mulint
      000BFF 3ArE9r15         [13] 2515 	ld	a, (_rule_dy+0)
      000C02 4F               [ 4] 2516 	ld	c, a
      000C03 07               [ 4] 2517 	rlca
      000C04 9F               [ 4] 2518 	sbc	a, a
      000C05 47               [ 4] 2519 	ld	b, a
      000C06 79               [ 4] 2520 	ld	a, c
      000C07 21rEAr15         [10] 2521 	ld	hl, #_rule_d
      000C0A 83               [ 4] 2522 	add	a, e
      000C0B 77               [ 7] 2523 	ld	(hl), a
      000C0C 23               [ 6] 2524 	inc	hl
      000C0D 78               [ 4] 2525 	ld	a, b
      000C0E 8A               [ 4] 2526 	adc	a, d
      000C0F 77               [ 7] 2527 	ld	(hl), a
                                   2528 ;ps_engine.c:333: for (r = 0; r < rule_rowCount; r++) {
      000C10 0E 00            [ 7] 2529 	ld	c, #0x00
      000C12                       2530 00117$:
      000C12 21rECr15         [10] 2531 	ld	hl, #_rule_rowCount
      000C15 79               [ 4] 2532 	ld	a, c
      000C16 96               [ 7] 2533 	sub	a, (hl)
      000C17 30 4D            [12] 2534 	jr	NC, 00107$
                                   2535 ;ps_engine.c:334: rule_rows[r] = p;
      000C19 69               [ 4] 2536 	ld	l, c
                                   2537 ;	spillPairReg hl
                                   2538 ;	spillPairReg hl
      000C1A 26 00            [ 7] 2539 	ld	h, #0x00
                                   2540 ;	spillPairReg hl
                                   2541 ;	spillPairReg hl
      000C1C 29               [11] 2542 	add	hl, hl
      000C1D 11rEEr15         [10] 2543 	ld	de, #_rule_rows
      000C20 19               [11] 2544 	add	hl, de
      000C21 DD 7E FE         [19] 2545 	ld	a, -2 (ix)
      000C24 77               [ 7] 2546 	ld	(hl), a
      000C25 23               [ 6] 2547 	inc	hl
      000C26 DD 7E FF         [19] 2548 	ld	a, -1 (ix)
      000C29 77               [ 7] 2549 	ld	(hl), a
                                   2550 ;ps_engine.c:335: rule_rowLen[r] = *p;
      000C2A 3ErFA            [ 7] 2551 	ld	a, #<(_rule_rowLen)
      000C2C 81               [ 4] 2552 	add	a, c
      000C2D 47               [ 4] 2553 	ld	b, a
      000C2E 3Es15            [ 7] 2554 	ld	a, #>(_rule_rowLen)
      000C30 CE 00            [ 7] 2555 	adc	a, #0x00
      000C32 DD 6E FE         [19] 2556 	ld	l, -2 (ix)
      000C35 DD 66 FF         [19] 2557 	ld	h, -1 (ix)
      000C38 5E               [ 7] 2558 	ld	e, (hl)
      000C39 68               [ 4] 2559 	ld	l, b
      000C3A 67               [ 4] 2560 	ld	h, a
      000C3B 73               [ 7] 2561 	ld	(hl), e
                                   2562 ;ps_engine.c:336: q = p + 1;
      000C3C E1               [10] 2563 	pop	hl
      000C3D D1               [10] 2564 	pop	de
      000C3E D5               [11] 2565 	push	de
      000C3F E5               [11] 2566 	push	hl
      000C40 13               [ 6] 2567 	inc	de
                                   2568 ;ps_engine.c:337: { u8 k; for (k = 0; k < rule_rowLen[r]; k++) q = cell_skip(q); }
      000C41 DD 70 FE         [19] 2569 	ld	-2 (ix), b
      000C44 DD 77 FF         [19] 2570 	ld	-1 (ix), a
      000C47 06 00            [ 7] 2571 	ld	b, #0x00
      000C49                       2572 00114$:
      000C49 DD 6E FE         [19] 2573 	ld	l, -2 (ix)
      000C4C DD 66 FF         [19] 2574 	ld	h, -1 (ix)
      000C4F 6E               [ 7] 2575 	ld	l, (hl)
                                   2576 ;	spillPairReg hl
      000C50 78               [ 4] 2577 	ld	a, b
      000C51 95               [ 4] 2578 	sub	a, l
      000C52 30 09            [12] 2579 	jr	NC, 00106$
      000C54 C5               [11] 2580 	push	bc
      000C55 EB               [ 4] 2581 	ex	de, hl
      000C56 CDr16r04         [17] 2582 	call	_cell_skip
      000C59 C1               [10] 2583 	pop	bc
      000C5A 04               [ 4] 2584 	inc	b
      000C5B 18 EC            [12] 2585 	jr	00114$
      000C5D                       2586 00106$:
                                   2587 ;ps_engine.c:338: p = q;
      000C5D DD 73 FE         [19] 2588 	ld	-2 (ix), e
      000C60 DD 72 FF         [19] 2589 	ld	-1 (ix), d
                                   2590 ;ps_engine.c:333: for (r = 0; r < rule_rowCount; r++) {
      000C63 0C               [ 4] 2591 	inc	c
      000C64 18 AC            [12] 2592 	jr	00117$
      000C66                       2593 00107$:
                                   2594 ;ps_engine.c:341: rule_matched = 0; rule_changed = 0;
      000C66 21r06r16         [10] 2595 	ld	hl, #_rule_matched
      000C69 36 00            [10] 2596 	ld	(hl), #0x00
      000C6B 21r07r16         [10] 2597 	ld	hl, #_rule_changed
      000C6E 36 00            [10] 2598 	ld	(hl), #0x00
                                   2599 ;ps_engine.c:342: scan_row(0);
      000C70 AF               [ 4] 2600 	xor	a, a
      000C71 CDr3Fr0A         [17] 2601 	call	_scan_row
                                   2602 ;ps_engine.c:343: if (rule_matched) {                      /* commands queue on match       */
      000C74 3Ar06r16         [13] 2603 	ld	a, (_rule_matched+0)
      000C77 B7               [ 4] 2604 	or	a, a
      000C78 28 1B            [12] 2605 	jr	Z, 00112$
                                   2606 ;ps_engine.c:344: turn_cmd |= cmd;
      000C7A 3ArCEr15         [13] 2607 	ld	a, (_turn_cmd+0)
      000C7D DD B6 FC         [19] 2608 	or	a, -4 (ix)
      000C80 32rCEr15         [13] 2609 	ld	(_turn_cmd+0), a
                                   2610 ;ps_engine.c:345: if ((cmd & CMD_MESSAGE) && turn_msg == 0xFF) turn_msg = msg;
      000C83 DD CB FC 6E      [20] 2611 	bit	5, -4 (ix)
      000C87 28 0C            [12] 2612 	jr	Z, 00112$
      000C89 3ArCFr15         [13] 2613 	ld	a, (_turn_msg+0)
      000C8C 3C               [ 4] 2614 	inc	a
      000C8D 20 06            [12] 2615 	jr	NZ, 00112$
      000C8F DD 7E FD         [19] 2616 	ld	a, -3 (ix)
      000C92 32rCFr15         [13] 2617 	ld	(_turn_msg+0), a
      000C95                       2618 00112$:
                                   2619 ;ps_engine.c:347: return rule_changed;
      000C95 3Ar07r16         [13] 2620 	ld	a, (_rule_changed+0)
                                   2621 ;ps_engine.c:348: }
      000C98 DD F9            [10] 2622 	ld	sp, ix
      000C9A DD E1            [14] 2623 	pop	ix
      000C9C C9               [10] 2624 	ret
                                   2625 ;ps_engine.c:351: static u8 apply_rule_group(const u8 *gp) {
                                   2626 ;	---------------------------------
                                   2627 ; Function apply_rule_group
                                   2628 ; ---------------------------------
      000C9D                       2629 _apply_rule_group:
      000C9D DD E5            [15] 2630 	push	ix
      000C9F DD 21 00 00      [14] 2631 	ld	ix,#0
      000CA3 DD 39            [15] 2632 	add	ix,sp
      000CA5 F5               [11] 2633 	push	af
      000CA6 F5               [11] 2634 	push	af
      000CA7 F5               [11] 2635 	push	af
                                   2636 ;ps_engine.c:352: u8 ruleCount = *gp, hasChanges = 0, made = 1;
      000CA8 7E               [ 7] 2637 	ld	a, (hl)
      000CA9 DD 77 FA         [19] 2638 	ld	-6 (ix), a
      000CAC DD 36 FB 00      [19] 2639 	ld	-5 (ix), #0x00
      000CB0 0E 01            [ 7] 2640 	ld	c, #0x01
                                   2641 ;ps_engine.c:354: while (made && ++loopcount < 200) {
      000CB2 EB               [ 4] 2642 	ex	de, hl
      000CB3 13               [ 6] 2643 	inc	de
      000CB4 DD 36 FC 00      [19] 2644 	ld	-4 (ix), #0x00
      000CB8                       2645 00110$:
      000CB8 79               [ 4] 2646 	ld	a, c
      000CB9 B7               [ 4] 2647 	or	a, a
      000CBA 28 69            [12] 2648 	jr	Z, 00112$
      000CBC DD 34 FC         [23] 2649 	inc	-4 (ix)
      000CBF DD 7E FC         [19] 2650 	ld	a, -4 (ix)
      000CC2 D6 C8            [ 7] 2651 	sub	a, #0xc8
      000CC4 30 5F            [12] 2652 	jr	NC, 00112$
                                   2653 ;ps_engine.c:355: const u8 *p = gp + 1;
      000CC6 DD 73 FD         [19] 2654 	ld	-3 (ix), e
      000CC9 DD 72 FE         [19] 2655 	ld	-2 (ix), d
                                   2656 ;ps_engine.c:356: u8 ri, consecFail = 0;
      000CCC DD 36 FF 00      [19] 2657 	ld	-1 (ix), #0x00
                                   2658 ;ps_engine.c:357: made = 0;
                                   2659 ;ps_engine.c:358: for (ri = 0; ri < ruleCount; ri++) {
      000CD0 01 00 00         [10] 2660 	ld	bc, #0x0
      000CD3                       2661 00114$:
      000CD3 78               [ 4] 2662 	ld	a, b
      000CD4 DD 96 FA         [19] 2663 	sub	a, -6 (ix)
      000CD7 30 42            [12] 2664 	jr	NC, 00106$
                                   2665 ;ps_engine.c:359: if (rule_try_apply(p)) { made = 1; consecFail = 0; }
      000CD9 C5               [11] 2666 	push	bc
      000CDA D5               [11] 2667 	push	de
      000CDB DD 6E FD         [19] 2668 	ld	l, -3 (ix)
                                   2669 ;	spillPairReg hl
                                   2670 ;	spillPairReg hl
      000CDE DD 66 FE         [19] 2671 	ld	h, -2 (ix)
                                   2672 ;	spillPairReg hl
                                   2673 ;	spillPairReg hl
      000CE1 CDr90r0B         [17] 2674 	call	_rule_try_apply
      000CE4 D1               [10] 2675 	pop	de
      000CE5 C1               [10] 2676 	pop	bc
      000CE6 B7               [ 4] 2677 	or	a, a
      000CE7 28 08            [12] 2678 	jr	Z, 00104$
      000CE9 0E 01            [ 7] 2679 	ld	c, #0x01
      000CEB DD 36 FF 00      [19] 2680 	ld	-1 (ix), #0x00
      000CEF 18 0B            [12] 2681 	jr	00105$
      000CF1                       2682 00104$:
                                   2683 ;ps_engine.c:360: else if (++consecFail == ruleCount) break;
      000CF1 DD 34 FF         [23] 2684 	inc	-1 (ix)
      000CF4 DD 7E FF         [19] 2685 	ld	a, -1 (ix)
      000CF7 DD 96 FA         [19] 2686 	sub	a, -6 (ix)
      000CFA 28 1F            [12] 2687 	jr	Z, 00106$
      000CFC                       2688 00105$:
                                   2689 ;ps_engine.c:361: p += rd16(p);
      000CFC C5               [11] 2690 	push	bc
      000CFD D5               [11] 2691 	push	de
      000CFE DD 6E FD         [19] 2692 	ld	l, -3 (ix)
                                   2693 ;	spillPairReg hl
                                   2694 ;	spillPairReg hl
      000D01 DD 66 FE         [19] 2695 	ld	h, -2 (ix)
                                   2696 ;	spillPairReg hl
                                   2697 ;	spillPairReg hl
      000D04 CDr0Br03         [17] 2698 	call	_rd16
      000D07 EB               [ 4] 2699 	ex	de, hl
      000D08 D1               [10] 2700 	pop	de
      000D09 C1               [10] 2701 	pop	bc
      000D0A 7D               [ 4] 2702 	ld	a, l
      000D0B DD 86 FD         [19] 2703 	add	a, -3 (ix)
      000D0E DD 77 FD         [19] 2704 	ld	-3 (ix), a
      000D11 7C               [ 4] 2705 	ld	a, h
      000D12 DD 8E FE         [19] 2706 	adc	a, -2 (ix)
      000D15 DD 77 FE         [19] 2707 	ld	-2 (ix), a
                                   2708 ;ps_engine.c:358: for (ri = 0; ri < ruleCount; ri++) {
      000D18 04               [ 4] 2709 	inc	b
      000D19 18 B8            [12] 2710 	jr	00114$
      000D1B                       2711 00106$:
                                   2712 ;ps_engine.c:363: if (made) hasChanges = 1;
      000D1B 79               [ 4] 2713 	ld	a, c
      000D1C B7               [ 4] 2714 	or	a, a
      000D1D 28 99            [12] 2715 	jr	Z, 00110$
      000D1F DD 36 FB 01      [19] 2716 	ld	-5 (ix), #0x01
      000D23 18 93            [12] 2717 	jr	00110$
      000D25                       2718 00112$:
                                   2719 ;ps_engine.c:365: return hasChanges;
      000D25 DD 7E FB         [19] 2720 	ld	a, -5 (ix)
                                   2721 ;ps_engine.c:366: }
      000D28 DD F9            [10] 2722 	ld	sp, ix
      000D2A DD E1            [14] 2723 	pop	ix
      000D2C C9               [10] 2724 	ret
                                   2725 ;ps_engine.c:369: static void apply_rules(const u8 *far3) {
                                   2726 ;	---------------------------------
                                   2727 ; Function apply_rules
                                   2728 ; ---------------------------------
      000D2D                       2729 _apply_rules:
      000D2D DD E5            [15] 2730 	push	ix
      000D2F DD 21 00 00      [14] 2731 	ld	ix,#0
      000D33 DD 39            [15] 2732 	add	ix,sp
      000D35 FD 21 F4 FF      [14] 2733 	ld	iy, #-12
      000D39 FD 39            [15] 2734 	add	iy, sp
      000D3B FD F9            [10] 2735 	ld	sp, iy
                                   2736 ;ps_engine.c:370: const u8 *blob = far_resolve(far3);
      000D3D CDrA9r03         [17] 2737 	call	_far_resolve
      000D40 33               [ 6] 2738 	inc	sp
      000D41 33               [ 6] 2739 	inc	sp
                                   2740 ;ps_engine.c:371: u8 groupCount = blob[0];
      000D42 EB               [ 4] 2741 	ex	de,hl
      000D43 E5               [11] 2742 	push	hl
      000D44 7E               [ 7] 2743 	ld	a, (hl)
      000D45 DD 77 F6         [19] 2744 	ld	-10 (ix), a
                                   2745 ;ps_engine.c:372: const u8 *loopPt  = blob + 1;
      000D48 DD 7E F4         [19] 2746 	ld	a, -12 (ix)
      000D4B C6 01            [ 7] 2747 	add	a, #0x01
      000D4D DD 77 F7         [19] 2748 	ld	-9 (ix), a
      000D50 DD 7E F5         [19] 2749 	ld	a, -11 (ix)
      000D53 CE 00            [ 7] 2750 	adc	a, #0x00
      000D55 DD 77 F8         [19] 2751 	ld	-8 (ix), a
                                   2752 ;ps_engine.c:373: const u8 *offsets = blob + 1 + groupCount + 1;
      000D58 DD 7E F6         [19] 2753 	ld	a, -10 (ix)
      000D5B DD 77 FE         [19] 2754 	ld	-2 (ix), a
      000D5E DD 36 FF 00      [19] 2755 	ld	-1 (ix), #0x00
      000D62 DD 7E FE         [19] 2756 	ld	a, -2 (ix)
      000D65 C6 02            [ 7] 2757 	add	a, #0x02
      000D67 DD 77 FC         [19] 2758 	ld	-4 (ix), a
      000D6A DD 7E FF         [19] 2759 	ld	a, -1 (ix)
      000D6D CE 00            [ 7] 2760 	adc	a, #0x00
      000D6F DD 77 FD         [19] 2761 	ld	-3 (ix), a
      000D72 DD 7E FC         [19] 2762 	ld	a, -4 (ix)
      000D75 DD 86 F4         [19] 2763 	add	a, -12 (ix)
      000D78 DD 77 FE         [19] 2764 	ld	-2 (ix), a
      000D7B DD 7E FD         [19] 2765 	ld	a, -3 (ix)
      000D7E DD 8E F5         [19] 2766 	adc	a, -11 (ix)
      000D81 DD 77 FF         [19] 2767 	ld	-1 (ix), a
      000D84 DD 7E FE         [19] 2768 	ld	a, -2 (ix)
      000D87 DD 77 F9         [19] 2769 	ld	-7 (ix), a
      000D8A DD 7E FF         [19] 2770 	ld	a, -1 (ix)
      000D8D DD 77 FA         [19] 2771 	ld	-6 (ix), a
                                   2772 ;ps_engine.c:374: u8 gi = 0, loopProp = 0, loopCount = 0;
      000D90 DD 36 FF 00      [19] 2773 	ld	-1 (ix), #0x00
      000D94 DD 36 FB 00      [19] 2774 	ld	-5 (ix), #0x00
      000D98 DD 36 FC 00      [19] 2775 	ld	-4 (ix), #0x00
                                   2776 ;ps_engine.c:376: if (!groupCount) return;
      000D9C DD 7E F6         [19] 2777 	ld	a, -10 (ix)
      000D9F B7               [ 4] 2778 	or	a, a
                                   2779 ;ps_engine.c:377: while (gi < groupCount) {
      000DA0 CAr44r0E         [10] 2780 	jp	Z,00119$
      000DA3                       2781 00116$:
      000DA3 DD 7E FF         [19] 2782 	ld	a, -1 (ix)
      000DA6 DD 96 F6         [19] 2783 	sub	a, -10 (ix)
      000DA9 D2r44r0E         [10] 2784 	jp	NC, 00119$
                                   2785 ;ps_engine.c:378: if (apply_rule_group(blob + rd16(offsets + ((u16)gi << 1))))
      000DAC DD 7E FF         [19] 2786 	ld	a, -1 (ix)
      000DAF DD 77 FD         [19] 2787 	ld	-3 (ix), a
      000DB2 DD 36 FE 00      [19] 2788 	ld	-2 (ix), #0x00
      000DB6 6F               [ 4] 2789 	ld	l, a
      000DB7 26 00            [ 7] 2790 	ld	h, #0x00
      000DB9 29               [11] 2791 	add	hl, hl
      000DBA DD 5E F9         [19] 2792 	ld	e, -7 (ix)
      000DBD DD 56 FA         [19] 2793 	ld	d, -6 (ix)
      000DC0 19               [11] 2794 	add	hl, de
      000DC1 CDr0Br03         [17] 2795 	call	_rd16
      000DC4 E1               [10] 2796 	pop	hl
      000DC5 E5               [11] 2797 	push	hl
      000DC6 19               [11] 2798 	add	hl, de
      000DC7 CDr9Dr0C         [17] 2799 	call	_apply_rule_group
      000DCA B7               [ 4] 2800 	or	a, a
      000DCB 28 04            [12] 2801 	jr	Z, 00104$
                                   2802 ;ps_engine.c:379: loopProp = 1;
      000DCD DD 36 FB 01      [19] 2803 	ld	-5 (ix), #0x01
      000DD1                       2804 00104$:
                                   2805 ;ps_engine.c:382: if (++loopCount > 200) break;
      000DD1 DD 7E FC         [19] 2806 	ld	a, -4 (ix)
      000DD4 3C               [ 4] 2807 	inc	a
      000DD5 DD 77 FD         [19] 2808 	ld	-3 (ix), a
                                   2809 ;ps_engine.c:380: if (loopProp && loopPt[gi] != 0xFF) {
      000DD8 DD 7E FB         [19] 2810 	ld	a, -5 (ix)
      000DDB B7               [ 4] 2811 	or	a, a
      000DDC 28 28            [12] 2812 	jr	Z, 00108$
      000DDE DD 7E F7         [19] 2813 	ld	a, -9 (ix)
      000DE1 DD 86 FF         [19] 2814 	add	a, -1 (ix)
      000DE4 4F               [ 4] 2815 	ld	c, a
      000DE5 DD 7E F8         [19] 2816 	ld	a, -8 (ix)
      000DE8 CE 00            [ 7] 2817 	adc	a, #0x00
      000DEA 47               [ 4] 2818 	ld	b, a
      000DEB 0A               [ 7] 2819 	ld	a, (bc)
      000DEC FE FF            [ 7] 2820 	cp	a, #0xff
      000DEE 28 16            [12] 2821 	jr	Z, 00108$
                                   2822 ;ps_engine.c:381: gi = loopPt[gi]; loopProp = 0;
      000DF0 DD 77 FF         [19] 2823 	ld	-1 (ix), a
      000DF3 DD 36 FB 00      [19] 2824 	ld	-5 (ix), #0x00
                                   2825 ;ps_engine.c:382: if (++loopCount > 200) break;
      000DF7 DD 7E FD         [19] 2826 	ld	a, -3 (ix)
      000DFA DD 77 FC         [19] 2827 	ld	-4 (ix), a
      000DFD 3E C8            [ 7] 2828 	ld	a, #0xc8
      000DFF DD 96 FC         [19] 2829 	sub	a, -4 (ix)
      000E02 30 9F            [12] 2830 	jr	NC, 00116$
      000E04 18 3E            [12] 2831 	jr	00119$
                                   2832 ;ps_engine.c:383: continue;
      000E06                       2833 00108$:
                                   2834 ;ps_engine.c:385: gi++;
      000E06 DD 34 FF         [23] 2835 	inc	-1 (ix)
                                   2836 ;ps_engine.c:386: if (gi == groupCount && loopProp && loopPt[gi] != 0xFF) {
      000E09 DD 7E FF         [19] 2837 	ld	a, -1 (ix)
      000E0C DD 96 F6         [19] 2838 	sub	a, -10 (ix)
      000E0F 20 92            [12] 2839 	jr	NZ, 00116$
      000E11 DD 7E FB         [19] 2840 	ld	a, -5 (ix)
      000E14 B7               [ 4] 2841 	or	a, a
      000E15 28 8C            [12] 2842 	jr	Z, 00116$
      000E17 DD 7E F7         [19] 2843 	ld	a, -9 (ix)
      000E1A DD 86 FF         [19] 2844 	add	a, -1 (ix)
      000E1D 4F               [ 4] 2845 	ld	c, a
      000E1E DD 7E F8         [19] 2846 	ld	a, -8 (ix)
      000E21 CE 00            [ 7] 2847 	adc	a, #0x00
      000E23 47               [ 4] 2848 	ld	b, a
      000E24 0A               [ 7] 2849 	ld	a, (bc)
      000E25 DD 77 FE         [19] 2850 	ld	-2 (ix), a
      000E28 3C               [ 4] 2851 	inc	a
      000E29 CArA3r0D         [10] 2852 	jp	Z,00116$
                                   2853 ;ps_engine.c:387: gi = loopPt[gi]; loopProp = 0;
      000E2C DD 7E FE         [19] 2854 	ld	a, -2 (ix)
      000E2F DD 77 FF         [19] 2855 	ld	-1 (ix), a
      000E32 DD 36 FB 00      [19] 2856 	ld	-5 (ix), #0x00
                                   2857 ;ps_engine.c:388: if (++loopCount > 200) break;
      000E36 DD 7E FD         [19] 2858 	ld	a, -3 (ix)
      000E39 DD 77 FC         [19] 2859 	ld	-4 (ix), a
      000E3C 3E C8            [ 7] 2860 	ld	a, #0xc8
      000E3E DD 96 FC         [19] 2861 	sub	a, -4 (ix)
      000E41 D2rA3r0D         [10] 2862 	jp	NC, 00116$
      000E44                       2863 00119$:
                                   2864 ;ps_engine.c:391: }
      000E44 DD F9            [10] 2865 	ld	sp, ix
      000E46 DD E1            [14] 2866 	pop	ix
      000E48 C9               [10] 2867 	ret
                                   2868 ;ps_engine.c:395: static u8 reposition(u8 i, u8 x, u8 y, u8 layer, u8 lm) {
                                   2869 ;	---------------------------------
                                   2870 ; Function reposition
                                   2871 ; ---------------------------------
      000E49                       2872 _reposition:
      000E49 DD E5            [15] 2873 	push	ix
      000E4B DD 21 00 00      [14] 2874 	ld	ix,#0
      000E4F DD 39            [15] 2875 	add	ix,sp
      000E51 FD 21 F1 FF      [14] 2876 	ld	iy, #-15
      000E55 FD 39            [15] 2877 	add	iy, sp
      000E57 FD F9            [10] 2878 	ld	sp, iy
      000E59 4F               [ 4] 2879 	ld	c, a
      000E5A DD 75 FF         [19] 2880 	ld	-1 (ix), l
                                   2881 ;ps_engine.c:396: s8 dx = 0, dy = 0;
      000E5D 06 00            [ 7] 2882 	ld	b, #0x00
      000E5F 58               [ 4] 2883 	ld	e, b
                                   2884 ;ps_engine.c:400: switch (lm) {
      000E60 DD 7E 06         [19] 2885 	ld	a, 6 (ix)
      000E63 3D               [ 4] 2886 	dec	a
      000E64 28 17            [12] 2887 	jr	Z, 00101$
      000E66 DD 7E 06         [19] 2888 	ld	a, 6 (ix)
      000E69 D6 02            [ 7] 2889 	sub	a, #0x02
      000E6B 28 14            [12] 2890 	jr	Z, 00102$
      000E6D DD 7E 06         [19] 2891 	ld	a, 6 (ix)
      000E70 D6 04            [ 7] 2892 	sub	a, #0x04
      000E72 28 11            [12] 2893 	jr	Z, 00103$
      000E74 DD 7E 06         [19] 2894 	ld	a, 6 (ix)
      000E77 D6 08            [ 7] 2895 	sub	a, #0x08
      000E79 28 0E            [12] 2896 	jr	Z, 00104$
      000E7B 18 0E            [12] 2897 	jr	00106$
                                   2898 ;ps_engine.c:401: case 1: dy = -1; break;
      000E7D                       2899 00101$:
      000E7D 1E FF            [ 7] 2900 	ld	e, #0xff
      000E7F 18 0A            [12] 2901 	jr	00106$
                                   2902 ;ps_engine.c:402: case 2: dy =  1; break;
      000E81                       2903 00102$:
      000E81 1E 01            [ 7] 2904 	ld	e, #0x01
      000E83 18 06            [12] 2905 	jr	00106$
                                   2906 ;ps_engine.c:403: case 4: dx = -1; break;
      000E85                       2907 00103$:
      000E85 06 FF            [ 7] 2908 	ld	b, #0xff
      000E87 18 02            [12] 2909 	jr	00106$
                                   2910 ;ps_engine.c:404: case 8: dx =  1; break;
      000E89                       2911 00104$:
      000E89 06 01            [ 7] 2912 	ld	b, #0x01
                                   2913 ;ps_engine.c:406: }
      000E8B                       2914 00106$:
                                   2915 ;ps_engine.c:407: if ((dx | dy) == 0) {
      000E8B 78               [ 4] 2916 	ld	a, b
      000E8C B3               [ 4] 2917 	or	a, e
      000E8D 57               [ 4] 2918 	ld	d, a
      000E8E B7               [ 4] 2919 	or	a, a
      000E8F 20 10            [12] 2920 	jr	NZ, 00110$
                                   2921 ;ps_engine.c:408: if (lm == 16) return 1;             /* action consumed, no motion     */
      000E91 DD 7E 06         [19] 2922 	ld	a, 6 (ix)
      000E94 D6 10            [ 7] 2923 	sub	a, #0x10
      000E96 20 05            [12] 2924 	jr	NZ, 00108$
      000E98 3E 01            [ 7] 2925 	ld	a, #0x01
      000E9A C3r0Ar10         [10] 2926 	jp	00122$
      000E9D                       2927 00108$:
                                   2928 ;ps_engine.c:409: return 0;                           /* '?' / weird masks: JS parity   */
      000E9D AF               [ 4] 2929 	xor	a, a
      000E9E C3r0Ar10         [10] 2930 	jp	00122$
      000EA1                       2931 00110$:
                                   2932 ;ps_engine.c:411: if ((x == 0 && dx < 0) || (x == g_w - 1 && dx > 0) ||
      000EA1 DD 7E FF         [19] 2933 	ld	a, -1 (ix)
      000EA4 B7               [ 4] 2934 	or	a, a
      000EA5 20 04            [12] 2935 	jr	NZ, 00115$
      000EA7 CB 78            [ 8] 2936 	bit	7, b
      000EA9 20 58            [12] 2937 	jr	NZ, 00111$
      000EAB                       2938 00115$:
      000EAB 3ArCAr15         [13] 2939 	ld	a, (_g_w+0)
      000EAE 26 00            [ 7] 2940 	ld	h, #0x00
                                   2941 ;	spillPairReg hl
                                   2942 ;	spillPairReg hl
      000EB0 6F               [ 4] 2943 	ld	l, a
      000EB1 2B               [ 6] 2944 	dec	hl
      000EB2 DD 7E FF         [19] 2945 	ld	a, -1 (ix)
      000EB5 DD 77 FD         [19] 2946 	ld	-3 (ix), a
      000EB8 DD 36 FE 00      [19] 2947 	ld	-2 (ix), #0x00
      000EBC 7D               [ 4] 2948 	ld	a, l
      000EBD DD 96 FD         [19] 2949 	sub	a, -3 (ix)
      000EC0 20 10            [12] 2950 	jr	NZ, 00117$
      000EC2 7C               [ 4] 2951 	ld	a, h
      000EC3 DD 96 FE         [19] 2952 	sub	a, -2 (ix)
      000EC6 20 0A            [12] 2953 	jr	NZ, 00117$
      000EC8 AF               [ 4] 2954 	xor	a, a
      000EC9 90               [ 4] 2955 	sub	a, b
      000ECA E2rCFr0E         [10] 2956 	jp	PO, 00187$
      000ECD EE 80            [ 7] 2957 	xor	a, #0x80
      000ECF                       2958 00187$:
      000ECF FAr03r0F         [10] 2959 	jp	M, 00111$
      000ED2                       2960 00117$:
                                   2961 ;ps_engine.c:412: (y == 0 && dy < 0) || (y == g_h - 1 && dy > 0)) return 0;
      000ED2 DD 7E 04         [19] 2962 	ld	a, 4 (ix)
      000ED5 B7               [ 4] 2963 	or	a, a
      000ED6 20 04            [12] 2964 	jr	NZ, 00119$
      000ED8 CB 7B            [ 8] 2965 	bit	7, e
      000EDA 20 27            [12] 2966 	jr	NZ, 00111$
      000EDC                       2967 00119$:
      000EDC 3ArCBr15         [13] 2968 	ld	a, (_g_h+0)
      000EDF 26 00            [ 7] 2969 	ld	h, #0x00
                                   2970 ;	spillPairReg hl
                                   2971 ;	spillPairReg hl
      000EE1 6F               [ 4] 2972 	ld	l, a
      000EE2 2B               [ 6] 2973 	dec	hl
      000EE3 DD 7E 04         [19] 2974 	ld	a, 4 (ix)
      000EE6 DD 77 FD         [19] 2975 	ld	-3 (ix), a
      000EE9 DD 36 FE 00      [19] 2976 	ld	-2 (ix), #0x00
      000EED 7D               [ 4] 2977 	ld	a, l
      000EEE DD 96 FD         [19] 2978 	sub	a, -3 (ix)
      000EF1 20 14            [12] 2979 	jr	NZ, 00112$
      000EF3 7C               [ 4] 2980 	ld	a, h
      000EF4 DD 96 FE         [19] 2981 	sub	a, -2 (ix)
      000EF7 20 0E            [12] 2982 	jr	NZ, 00112$
      000EF9 AF               [ 4] 2983 	xor	a, a
      000EFA 93               [ 4] 2984 	sub	a, e
      000EFB E2r00r0F         [10] 2985 	jp	PO, 00190$
      000EFE EE 80            [ 7] 2986 	xor	a, #0x80
      000F00                       2987 00190$:
      000F00 F2r07r0F         [10] 2988 	jp	P, 00112$
      000F03                       2989 00111$:
      000F03 AF               [ 4] 2990 	xor	a, a
      000F04 C3r0Ar10         [10] 2991 	jp	00122$
      000F07                       2992 00112$:
                                   2993 ;ps_engine.c:414: ti = (u8)((int)i + (int)dx * g_h + dy);
      000F07 51               [ 4] 2994 	ld	d, c
      000F08 3ArCBr15         [13] 2995 	ld	a, (_g_h+0)
      000F0B D5               [11] 2996 	push	de
      000F0C 5F               [ 4] 2997 	ld	e, a
      000F0D 60               [ 4] 2998 	ld	h, b
                                   2999 ;	spillPairReg hl
                                   3000 ;	spillPairReg hl
      000F0E 2E 00            [ 7] 3001 	ld	l, #0x00
      000F10 55               [ 4] 3002 	ld	d, l
      000F11 06 08            [ 7] 3003 	ld	b, #0x08
      000F13                       3004 00191$:
      000F13 29               [11] 3005 	add	hl, hl
      000F14 30 01            [12] 3006 	jr	NC, 00192$
      000F16 19               [11] 3007 	add	hl, de
      000F17                       3008 00192$:
      000F17 10 FA            [13] 3009 	djnz	00191$
      000F19 D1               [10] 3010 	pop	de
      000F1A 7A               [ 4] 3011 	ld	a, d
      000F1B 85               [ 4] 3012 	add	a, l
      000F1C 83               [ 4] 3013 	add	a, e
      000F1D 47               [ 4] 3014 	ld	b, a
                                   3015 ;ps_engine.c:415: lmask = g_layerMasks[layer];
      000F1E 11r0Er00         [10] 3016 	ld	de, #_g_layerMasks+0
      000F21 DD 6E 05         [19] 3017 	ld	l, 5 (ix)
                                   3018 ;	spillPairReg hl
                                   3019 ;	spillPairReg hl
      000F24 26 00            [ 7] 3020 	ld	h, #0x00
                                   3021 ;	spillPairReg hl
                                   3022 ;	spillPairReg hl
      000F26 29               [11] 3023 	add	hl, hl
      000F27 29               [11] 3024 	add	hl, hl
      000F28 19               [11] 3025 	add	hl, de
      000F29 C5               [11] 3026 	push	bc
      000F2A EB               [ 4] 3027 	ex	de, hl
      000F2B 21 02 00         [10] 3028 	ld	hl, #2
      000F2E 39               [11] 3029 	add	hl, sp
      000F2F EB               [ 4] 3030 	ex	de, hl
      000F30 01 04 00         [10] 3031 	ld	bc, #0x0004
      000F33 ED B0            [21] 3032 	ldir
      000F35 C1               [10] 3033 	pop	bc
                                   3034 ;ps_engine.c:416: if (lev[ti] & lmask) return 0;          /* layer collision                */
      000F36 58               [ 4] 3035 	ld	e, b
      000F37 16 00            [ 7] 3036 	ld	d, #0x00
      000F39 EB               [ 4] 3037 	ex	de, hl
      000F3A 29               [11] 3038 	add	hl, hl
      000F3B 29               [11] 3039 	add	hl, hl
      000F3C 11rC8r00         [10] 3040 	ld	de, #_lev
      000F3F 19               [11] 3041 	add	hl, de
      000F40 DD 75 F5         [19] 3042 	ld	-11 (ix), l
      000F43 DD 74 F6         [19] 3043 	ld	-10 (ix), h
      000F46 5E               [ 7] 3044 	ld	e, (hl)
      000F47 23               [ 6] 3045 	inc	hl
      000F48 56               [ 7] 3046 	ld	d, (hl)
      000F49 23               [ 6] 3047 	inc	hl
      000F4A 23               [ 6] 3048 	inc	hl
      000F4B 7E               [ 7] 3049 	ld	a, (hl)
      000F4C 2B               [ 6] 3050 	dec	hl
      000F4D 6E               [ 7] 3051 	ld	l, (hl)
                                   3052 ;	spillPairReg hl
      000F4E 67               [ 4] 3053 	ld	h, a
                                   3054 ;	spillPairReg hl
                                   3055 ;	spillPairReg hl
      000F4F 7B               [ 4] 3056 	ld	a, e
      000F50 DD A6 F1         [19] 3057 	and	a, -15 (ix)
      000F53 F5               [11] 3058 	push	af
      000F54 7A               [ 4] 3059 	ld	a, d
      000F55 DD A6 F2         [19] 3060 	and	a, -14 (ix)
      000F58 47               [ 4] 3061 	ld	b, a
      000F59 7D               [ 4] 3062 	ld	a, l
      000F5A DD A6 F3         [19] 3063 	and	a, -13 (ix)
      000F5D 5F               [ 4] 3064 	ld	e, a
      000F5E 7C               [ 4] 3065 	ld	a, h
      000F5F DD A6 F4         [19] 3066 	and	a, -12 (ix)
      000F62 57               [ 4] 3067 	ld	d, a
      000F63 F1               [10] 3068 	pop	af
      000F64 B2               [ 4] 3069 	or	a, d
      000F65 B3               [ 4] 3070 	or	a, e
      000F66 B0               [ 4] 3071 	or	a, b
      000F67 28 04            [12] 3072 	jr	Z, 00121$
      000F69 AF               [ 4] 3073 	xor	a, a
      000F6A C3r0Ar10         [10] 3074 	jp	00122$
      000F6D                       3075 00121$:
                                   3076 ;ps_engine.c:417: moving = lev[i] & lmask;
      000F6D 69               [ 4] 3077 	ld	l, c
                                   3078 ;	spillPairReg hl
                                   3079 ;	spillPairReg hl
      000F6E 26 00            [ 7] 3080 	ld	h, #0x00
                                   3081 ;	spillPairReg hl
                                   3082 ;	spillPairReg hl
      000F70 29               [11] 3083 	add	hl, hl
      000F71 29               [11] 3084 	add	hl, hl
      000F72 11rC8r00         [10] 3085 	ld	de, #_lev
      000F75 19               [11] 3086 	add	hl, de
      000F76 EB               [ 4] 3087 	ex	de, hl
      000F77 D5               [11] 3088 	push	de
      000F78 21 08 00         [10] 3089 	ld	hl, #8
      000F7B 39               [11] 3090 	add	hl, sp
      000F7C EB               [ 4] 3091 	ex	de, hl
      000F7D 01 04 00         [10] 3092 	ld	bc, #0x0004
      000F80 ED B0            [21] 3093 	ldir
      000F82 E1               [10] 3094 	pop	hl
      000F83 DD 7E F7         [19] 3095 	ld	a, -9 (ix)
      000F86 DD A6 F1         [19] 3096 	and	a, -15 (ix)
      000F89 4F               [ 4] 3097 	ld	c, a
      000F8A DD 7E F8         [19] 3098 	ld	a, -8 (ix)
      000F8D DD A6 F2         [19] 3099 	and	a, -14 (ix)
      000F90 47               [ 4] 3100 	ld	b, a
      000F91 DD 7E F9         [19] 3101 	ld	a, -7 (ix)
      000F94 DD A6 F3         [19] 3102 	and	a, -13 (ix)
      000F97 5F               [ 4] 3103 	ld	e, a
      000F98 DD 7E FA         [19] 3104 	ld	a, -6 (ix)
      000F9B DD A6 F4         [19] 3105 	and	a, -12 (ix)
      000F9E 57               [ 4] 3106 	ld	d, a
      000F9F DD 71 FB         [19] 3107 	ld	-5 (ix), c
      000FA2 DD 70 FC         [19] 3108 	ld	-4 (ix), b
      000FA5 DD 73 FD         [19] 3109 	ld	-3 (ix), e
      000FA8 DD 72 FE         [19] 3110 	ld	-2 (ix), d
                                   3111 ;ps_engine.c:418: lev[i] &= ~lmask;
      000FAB DD 7E F1         [19] 3112 	ld	a, -15 (ix)
      000FAE 2F               [ 4] 3113 	cpl
      000FAF 4F               [ 4] 3114 	ld	c, a
      000FB0 DD 7E F2         [19] 3115 	ld	a, -14 (ix)
      000FB3 2F               [ 4] 3116 	cpl
      000FB4 47               [ 4] 3117 	ld	b, a
      000FB5 DD 7E F3         [19] 3118 	ld	a, -13 (ix)
      000FB8 2F               [ 4] 3119 	cpl
      000FB9 5F               [ 4] 3120 	ld	e, a
      000FBA DD 7E F4         [19] 3121 	ld	a, -12 (ix)
      000FBD 2F               [ 4] 3122 	cpl
      000FBE F5               [11] 3123 	push	af
      000FBF DD 7E F7         [19] 3124 	ld	a, -9 (ix)
      000FC2 A1               [ 4] 3125 	and	a, c
      000FC3 4F               [ 4] 3126 	ld	c, a
      000FC4 DD 7E F8         [19] 3127 	ld	a, -8 (ix)
      000FC7 A0               [ 4] 3128 	and	a, b
      000FC8 47               [ 4] 3129 	ld	b, a
      000FC9 DD 7E F9         [19] 3130 	ld	a, -7 (ix)
      000FCC A3               [ 4] 3131 	and	a, e
      000FCD 5F               [ 4] 3132 	ld	e, a
      000FCE F1               [10] 3133 	pop	af
      000FCF DD A6 FA         [19] 3134 	and	a, -6 (ix)
      000FD2 57               [ 4] 3135 	ld	d, a
      000FD3 71               [ 7] 3136 	ld	(hl), c
      000FD4 23               [ 6] 3137 	inc	hl
      000FD5 70               [ 7] 3138 	ld	(hl), b
      000FD6 23               [ 6] 3139 	inc	hl
      000FD7 73               [ 7] 3140 	ld	(hl), e
      000FD8 23               [ 6] 3141 	inc	hl
      000FD9 72               [ 7] 3142 	ld	(hl), d
                                   3143 ;ps_engine.c:419: lev[ti] |= moving;
      000FDA DD 6E F5         [19] 3144 	ld	l, -11 (ix)
      000FDD DD 66 F6         [19] 3145 	ld	h, -10 (ix)
      000FE0 4E               [ 7] 3146 	ld	c, (hl)
      000FE1 23               [ 6] 3147 	inc	hl
      000FE2 46               [ 7] 3148 	ld	b, (hl)
      000FE3 23               [ 6] 3149 	inc	hl
      000FE4 5E               [ 7] 3150 	ld	e, (hl)
      000FE5 23               [ 6] 3151 	inc	hl
      000FE6 56               [ 7] 3152 	ld	d, (hl)
      000FE7 79               [ 4] 3153 	ld	a, c
      000FE8 DD B6 FB         [19] 3154 	or	a, -5 (ix)
      000FEB 4F               [ 4] 3155 	ld	c, a
      000FEC 78               [ 4] 3156 	ld	a, b
      000FED DD B6 FC         [19] 3157 	or	a, -4 (ix)
      000FF0 47               [ 4] 3158 	ld	b, a
      000FF1 7B               [ 4] 3159 	ld	a, e
      000FF2 DD B6 FD         [19] 3160 	or	a, -3 (ix)
      000FF5 5F               [ 4] 3161 	ld	e, a
      000FF6 7A               [ 4] 3162 	ld	a, d
      000FF7 DD B6 FE         [19] 3163 	or	a, -2 (ix)
      000FFA 57               [ 4] 3164 	ld	d, a
      000FFB DD 6E F5         [19] 3165 	ld	l, -11 (ix)
      000FFE DD 66 F6         [19] 3166 	ld	h, -10 (ix)
      001001 71               [ 7] 3167 	ld	(hl), c
      001002 23               [ 6] 3168 	inc	hl
      001003 70               [ 7] 3169 	ld	(hl), b
      001004 23               [ 6] 3170 	inc	hl
      001005 73               [ 7] 3171 	ld	(hl), e
      001006 23               [ 6] 3172 	inc	hl
      001007 72               [ 7] 3173 	ld	(hl), d
                                   3174 ;ps_engine.c:420: return 1;
      001008 3E 01            [ 7] 3175 	ld	a, #0x01
      00100A                       3176 00122$:
                                   3177 ;ps_engine.c:421: }
      00100A DD F9            [10] 3178 	ld	sp, ix
      00100C DD E1            [14] 3179 	pop	ix
      00100E E1               [10] 3180 	pop	hl
      00100F C1               [10] 3181 	pop	bc
      001010 33               [ 6] 3182 	inc	sp
      001011 E9               [ 4] 3183 	jp	(hl)
                                   3184 ;ps_engine.c:424: static void resolve_movements(void) {
                                   3185 ;	---------------------------------
                                   3186 ; Function resolve_movements
                                   3187 ; ---------------------------------
      001012                       3188 _resolve_movements:
      001012 DD E5            [15] 3189 	push	ix
      001014 DD 21 00 00      [14] 3190 	ld	ix,#0
      001018 DD 39            [15] 3191 	add	ix,sp
      00101A 21 F2 FF         [10] 3192 	ld	hl, #-14
      00101D 39               [11] 3193 	add	hl, sp
      00101E F9               [ 6] 3194 	ld	sp, hl
                                   3195 ;ps_engine.c:425: u8 moved = 1;
      00101F 0E 01            [ 7] 3196 	ld	c, #0x01
                                   3197 ;ps_engine.c:426: while (moved) {
      001021                       3198 00112$:
      001021 79               [ 4] 3199 	ld	a, c
      001022 B7               [ 4] 3200 	or	a, a
      001023 CAr60r11         [10] 3201 	jp	Z, 00140$
                                   3202 ;ps_engine.c:427: u8 x, y, i = 0, layer, sh;
      001026 1E 00            [ 7] 3203 	ld	e, #0x00
                                   3204 ;ps_engine.c:428: moved = 0;
                                   3205 ;ps_engine.c:429: for (x = 0; x < g_w; x++)
      001028 01 00 00         [10] 3206 	ld	bc, #0x0
      00102B                       3207 00121$:
      00102B 21rCAr15         [10] 3208 	ld	hl, #_g_w
      00102E 78               [ 4] 3209 	ld	a, b
      00102F 96               [ 7] 3210 	sub	a, (hl)
      001030 30 EF            [12] 3211 	jr	NC, 00112$
                                   3212 ;ps_engine.c:430: for (y = 0; y < g_h; y++, i++) {
      001032 16 00            [ 7] 3213 	ld	d, #0x00
      001034                       3214 00119$:
      001034 21rCBr15         [10] 3215 	ld	hl, #_g_h
      001037 7A               [ 4] 3216 	ld	a, d
      001038 96               [ 7] 3217 	sub	a, (hl)
      001039 D2r5Cr11         [10] 3218 	jp	NC, 00143$
                                   3219 ;ps_engine.c:431: u32 m = mov[i];
      00103C 6B               [ 4] 3220 	ld	l, e
                                   3221 ;	spillPairReg hl
                                   3222 ;	spillPairReg hl
      00103D 26 00            [ 7] 3223 	ld	h, #0x00
                                   3224 ;	spillPairReg hl
                                   3225 ;	spillPairReg hl
      00103F 29               [11] 3226 	add	hl, hl
      001040 29               [11] 3227 	add	hl, hl
      001041 7D               [ 4] 3228 	ld	a, l
      001042 C6rC8            [ 7] 3229 	add	a, #<(_mov)
      001044 DD 77 F6         [19] 3230 	ld	-10 (ix), a
      001047 7C               [ 4] 3231 	ld	a, h
      001048 CEs03            [ 7] 3232 	adc	a, #>(_mov)
      00104A DD 77 F7         [19] 3233 	ld	-9 (ix), a
      00104D D5               [11] 3234 	push	de
      00104E C5               [11] 3235 	push	bc
      00104F DD 5E F6         [19] 3236 	ld	e, -10 (ix)
      001052 DD 56 F7         [19] 3237 	ld	d, -9 (ix)
      001055 21 0D 00         [10] 3238 	ld	hl, #13
      001058 39               [11] 3239 	add	hl, sp
      001059 EB               [ 4] 3240 	ex	de, hl
      00105A 01 04 00         [10] 3241 	ld	bc, #0x0004
      00105D ED B0            [21] 3242 	ldir
      00105F C1               [10] 3243 	pop	bc
      001060 D1               [10] 3244 	pop	de
                                   3245 ;ps_engine.c:432: if (!m) continue;
      001061 DD 7E FE         [19] 3246 	ld	a, -2 (ix)
      001064 DD B6 FD         [19] 3247 	or	a, -3 (ix)
      001067 DD B6 FC         [19] 3248 	or	a, -4 (ix)
      00106A DD B6 FB         [19] 3249 	or	a, -5 (ix)
      00106D CAr57r11         [10] 3250 	jp	Z, 00109$
                                   3251 ;ps_engine.c:433: for (layer = 0, sh = 0; layer < g_nlayers; layer++, sh += 5) {
      001070 DD 36 F8 00      [19] 3252 	ld	-8 (ix), #0x00
      001074 DD 36 FF 00      [19] 3253 	ld	-1 (ix), #0x00
      001078                       3254 00117$:
      001078 21r01r00         [10] 3255 	ld	hl, #_g_nlayers
      00107B DD 7E FF         [19] 3256 	ld	a, -1 (ix)
      00107E 96               [ 7] 3257 	sub	a, (hl)
      00107F D2r44r11         [10] 3258 	jp	NC, 00108$
                                   3259 ;ps_engine.c:434: u8 lm = (u8)((m >> sh) & 0x1F);
      001082 DD 7E F8         [19] 3260 	ld	a, -8 (ix)
      001085 F5               [11] 3261 	push	af
      001086 DD 7E FB         [19] 3262 	ld	a, -5 (ix)
      001089 DD 77 F2         [19] 3263 	ld	-14 (ix), a
      00108C DD 7E FC         [19] 3264 	ld	a, -4 (ix)
      00108F DD 77 F3         [19] 3265 	ld	-13 (ix), a
      001092 DD 7E FD         [19] 3266 	ld	a, -3 (ix)
      001095 DD 77 F4         [19] 3267 	ld	-12 (ix), a
      001098 DD 7E FE         [19] 3268 	ld	a, -2 (ix)
      00109B DD 77 F5         [19] 3269 	ld	-11 (ix), a
      00109E F1               [10] 3270 	pop	af
      00109F 3C               [ 4] 3271 	inc	a
      0010A0 18 10            [12] 3272 	jr	00197$
      0010A2                       3273 00196$:
      0010A2 DD CB F5 3E      [23] 3274 	srl	-11 (ix)
      0010A6 DD CB F4 1E      [23] 3275 	rr	-12 (ix)
      0010AA DD CB F3 1E      [23] 3276 	rr	-13 (ix)
      0010AE DD CB F2 1E      [23] 3277 	rr	-14 (ix)
      0010B2                       3278 00197$:
      0010B2 3D               [ 4] 3279 	dec	a
      0010B3 20 ED            [12] 3280 	jr	NZ, 00196$
      0010B5 DD 7E F2         [19] 3281 	ld	a, -14 (ix)
      0010B8 E6 1F            [ 7] 3282 	and	a, #0x1f
      0010BA DD 77 F9         [19] 3283 	ld	-7 (ix), a
      0010BD DD 77 FA         [19] 3284 	ld	-6 (ix), a
                                   3285 ;ps_engine.c:435: if (!lm) continue;
      0010C0 DD 7E F9         [19] 3286 	ld	a, -7 (ix)
      0010C3 B7               [ 4] 3287 	or	a, a
      0010C4 28 70            [12] 3288 	jr	Z, 00107$
                                   3289 ;ps_engine.c:436: if (reposition(i, x, y, layer, lm)) {
      0010C6 C5               [11] 3290 	push	bc
      0010C7 D5               [11] 3291 	push	de
      0010C8 DD 66 FA         [19] 3292 	ld	h, -6 (ix)
      0010CB DD 6E FF         [19] 3293 	ld	l, -1 (ix)
      0010CE E5               [11] 3294 	push	hl
      0010CF D5               [11] 3295 	push	de
      0010D0 33               [ 6] 3296 	inc	sp
      0010D1 68               [ 4] 3297 	ld	l, b
                                   3298 ;	spillPairReg hl
                                   3299 ;	spillPairReg hl
      0010D2 7B               [ 4] 3300 	ld	a, e
      0010D3 CDr49r0E         [17] 3301 	call	_reposition
      0010D6 D1               [10] 3302 	pop	de
      0010D7 C1               [10] 3303 	pop	bc
      0010D8 B7               [ 4] 3304 	or	a, a
      0010D9 28 5B            [12] 3305 	jr	Z, 00107$
                                   3306 ;ps_engine.c:437: m &= ~((u32)0x1F << sh);
      0010DB DD 7E F8         [19] 3307 	ld	a, -8 (ix)
      0010DE DD 36 F2 1F      [19] 3308 	ld	-14 (ix), #0x1f
      0010E2 DD 36 F3 00      [19] 3309 	ld	-13 (ix), #0x00
      0010E6 DD 36 F4 00      [19] 3310 	ld	-12 (ix), #0x00
      0010EA DD 36 F5 00      [19] 3311 	ld	-11 (ix), #0x00
      0010EE 3C               [ 4] 3312 	inc	a
      0010EF 18 10            [12] 3313 	jr	00199$
      0010F1                       3314 00198$:
      0010F1 DD CB F2 26      [23] 3315 	sla	-14 (ix)
      0010F5 DD CB F3 16      [23] 3316 	rl	-13 (ix)
      0010F9 DD CB F4 16      [23] 3317 	rl	-12 (ix)
      0010FD DD CB F5 16      [23] 3318 	rl	-11 (ix)
      001101                       3319 00199$:
      001101 3D               [ 4] 3320 	dec	a
      001102 20 ED            [12] 3321 	jr	NZ,00198$
      001104 DD 7E F2         [19] 3322 	ld	a, -14 (ix)
      001107 2F               [ 4] 3323 	cpl
      001108 F5               [11] 3324 	push	af
      001109 DD 7E F3         [19] 3325 	ld	a, -13 (ix)
      00110C 2F               [ 4] 3326 	cpl
      00110D 4F               [ 4] 3327 	ld	c, a
      00110E DD 7E F4         [19] 3328 	ld	a, -12 (ix)
      001111 2F               [ 4] 3329 	cpl
      001112 6F               [ 4] 3330 	ld	l, a
                                   3331 ;	spillPairReg hl
                                   3332 ;	spillPairReg hl
      001113 DD 7E F5         [19] 3333 	ld	a, -11 (ix)
      001116 2F               [ 4] 3334 	cpl
      001117 67               [ 4] 3335 	ld	h, a
                                   3336 ;	spillPairReg hl
                                   3337 ;	spillPairReg hl
      001118 F1               [10] 3338 	pop	af
      001119 DD A6 FB         [19] 3339 	and	a, -5 (ix)
      00111C DD 77 FB         [19] 3340 	ld	-5 (ix), a
      00111F 79               [ 4] 3341 	ld	a, c
      001120 DD A6 FC         [19] 3342 	and	a, -4 (ix)
      001123 DD 77 FC         [19] 3343 	ld	-4 (ix), a
      001126 7D               [ 4] 3344 	ld	a, l
      001127 DD A6 FD         [19] 3345 	and	a, -3 (ix)
      00112A DD 77 FD         [19] 3346 	ld	-3 (ix), a
      00112D 7C               [ 4] 3347 	ld	a, h
      00112E DD A6 FE         [19] 3348 	and	a, -2 (ix)
      001131 DD 77 FE         [19] 3349 	ld	-2 (ix), a
                                   3350 ;ps_engine.c:438: moved = 1;
      001134 0E 01            [ 7] 3351 	ld	c, #0x01
      001136                       3352 00107$:
                                   3353 ;ps_engine.c:433: for (layer = 0, sh = 0; layer < g_nlayers; layer++, sh += 5) {
      001136 DD 34 FF         [23] 3354 	inc	-1 (ix)
      001139 DD 7E F8         [19] 3355 	ld	a, -8 (ix)
      00113C C6 05            [ 7] 3356 	add	a, #0x05
      00113E DD 77 F8         [19] 3357 	ld	-8 (ix), a
      001141 C3r78r10         [10] 3358 	jp	00117$
      001144                       3359 00108$:
                                   3360 ;ps_engine.c:441: mov[i] = m;
      001144 D5               [11] 3361 	push	de
      001145 C5               [11] 3362 	push	bc
      001146 DD 5E F6         [19] 3363 	ld	e, -10 (ix)
      001149 DD 56 F7         [19] 3364 	ld	d, -9 (ix)
      00114C 21 0D 00         [10] 3365 	ld	hl, #13
      00114F 39               [11] 3366 	add	hl, sp
      001150 01 04 00         [10] 3367 	ld	bc, #0x0004
      001153 ED B0            [21] 3368 	ldir
      001155 C1               [10] 3369 	pop	bc
      001156 D1               [10] 3370 	pop	de
      001157                       3371 00109$:
                                   3372 ;ps_engine.c:430: for (y = 0; y < g_h; y++, i++) {
      001157 14               [ 4] 3373 	inc	d
      001158 1C               [ 4] 3374 	inc	e
      001159 C3r34r10         [10] 3375 	jp	00119$
      00115C                       3376 00143$:
                                   3377 ;ps_engine.c:429: for (x = 0; x < g_w; x++)
      00115C 04               [ 4] 3378 	inc	b
      00115D C3r2Br10         [10] 3379 	jp	00121$
                                   3380 ;ps_engine.c:444: { u8 i; for (i = 0; i < g_ncells; i++) mov[i] = 0; }
      001160                       3381 00140$:
      001160 01rC8r03         [10] 3382 	ld	bc, #_mov
      001163 1E 00            [ 7] 3383 	ld	e, #0x00
      001165                       3384 00124$:
      001165 21rCCr15         [10] 3385 	ld	hl, #_g_ncells
      001168 7B               [ 4] 3386 	ld	a, e
      001169 96               [ 7] 3387 	sub	a, (hl)
      00116A 30 11            [12] 3388 	jr	NC, 00126$
      00116C 6B               [ 4] 3389 	ld	l, e
                                   3390 ;	spillPairReg hl
                                   3391 ;	spillPairReg hl
      00116D 26 00            [ 7] 3392 	ld	h, #0x00
                                   3393 ;	spillPairReg hl
                                   3394 ;	spillPairReg hl
      00116F 29               [11] 3395 	add	hl, hl
      001170 29               [11] 3396 	add	hl, hl
      001171 09               [11] 3397 	add	hl, bc
      001172 AF               [ 4] 3398 	xor	a, a
      001173 77               [ 7] 3399 	ld	(hl), a
      001174 23               [ 6] 3400 	inc	hl
      001175 77               [ 7] 3401 	ld	(hl), a
      001176 23               [ 6] 3402 	inc	hl
      001177 77               [ 7] 3403 	ld	(hl), a
      001178 23               [ 6] 3404 	inc	hl
      001179 77               [ 7] 3405 	ld	(hl), a
      00117A 1C               [ 4] 3406 	inc	e
      00117B 18 E8            [12] 3407 	jr	00124$
      00117D                       3408 00126$:
                                   3409 ;ps_engine.c:445: }
      00117D DD F9            [10] 3410 	ld	sp, ix
      00117F DD E1            [14] 3411 	pop	ix
      001181 C9               [10] 3412 	ret
                                   3413 ;ps_engine.c:448: static u8 check_win(void) {
                                   3414 ;	---------------------------------
                                   3415 ; Function check_win
                                   3416 ; ---------------------------------
      001182                       3417 _check_win:
      001182 DD E5            [15] 3418 	push	ix
      001184 DD 21 00 00      [14] 3419 	ld	ix,#0
      001188 DD 39            [15] 3420 	add	ix,sp
      00118A 21 E2 FF         [10] 3421 	ld	hl, #-30
      00118D 39               [11] 3422 	add	hl, sp
      00118E F9               [ 6] 3423 	ld	sp, hl
                                   3424 ;ps_engine.c:449: const u8 *p = far_resolve(g_far_win);
      00118F 21r82r00         [10] 3425 	ld	hl, #_g_far_win
      001192 CDrA9r03         [17] 3426 	call	_far_resolve
                                   3427 ;ps_engine.c:450: u8 n = *p++, w;
      001195 1A               [ 7] 3428 	ld	a, (de)
      001196 DD 77 EA         [19] 3429 	ld	-22 (ix), a
      001199 13               [ 6] 3430 	inc	de
      00119A DD 73 FA         [19] 3431 	ld	-6 (ix), e
      00119D DD 72 FB         [19] 3432 	ld	-5 (ix), d
                                   3433 ;ps_engine.c:451: if (turn_cmd & CMD_WIN) return 1;
      0011A0 3ArCEr15         [13] 3434 	ld	a, (_turn_cmd+0)
      0011A3 CB 57            [ 8] 3435 	bit	2, a
      0011A5 28 05            [12] 3436 	jr	Z, 00102$
      0011A7 3E 01            [ 7] 3437 	ld	a, #0x01
      0011A9 C3rFDr13         [10] 3438 	jp	00128$
      0011AC                       3439 00102$:
                                   3440 ;ps_engine.c:452: if (!n) return 0;
      0011AC DD 7E EA         [19] 3441 	ld	a, -22 (ix)
      0011AF B7               [ 4] 3442 	or	a,a
                                   3443 ;ps_engine.c:453: for (w = 0; w < n; w++, p += 10) {
      0011B0 CArFDr13         [10] 3444 	jp	Z,00128$
      0011B3 DD 36 FC 00      [19] 3445 	ld	-4 (ix), #0x00
      0011B7 DD 7E FA         [19] 3446 	ld	a, -6 (ix)
      0011BA DD 77 FD         [19] 3447 	ld	-3 (ix), a
      0011BD DD 7E FB         [19] 3448 	ld	a, -5 (ix)
      0011C0 DD 77 FE         [19] 3449 	ld	-2 (ix), a
      0011C3                       3450 00126$:
      0011C3 DD 7E FC         [19] 3451 	ld	a, -4 (ix)
      0011C6 DD 96 EA         [19] 3452 	sub	a, -22 (ix)
      0011C9 D2rFBr13         [10] 3453 	jp	NC, 00121$
                                   3454 ;ps_engine.c:454: u8 type = p[0], aggr = p[1], i, hit = 0;
      0011CC DD 6E FD         [19] 3455 	ld	l, -3 (ix)
      0011CF DD 66 FE         [19] 3456 	ld	h, -2 (ix)
      0011D2 7E               [ 7] 3457 	ld	a, (hl)
      0011D3 DD 77 EB         [19] 3458 	ld	-21 (ix), a
      0011D6 DD 7E FD         [19] 3459 	ld	a, -3 (ix)
      0011D9 DD 77 FA         [19] 3460 	ld	-6 (ix), a
      0011DC DD 7E FE         [19] 3461 	ld	a, -2 (ix)
      0011DF DD 77 FB         [19] 3462 	ld	-5 (ix), a
      0011E2 DD 6E FA         [19] 3463 	ld	l, -6 (ix)
      0011E5 DD 66 FB         [19] 3464 	ld	h, -5 (ix)
      0011E8 23               [ 6] 3465 	inc	hl
      0011E9 7E               [ 7] 3466 	ld	a, (hl)
      0011EA DD 77 FF         [19] 3467 	ld	-1 (ix), a
      0011ED DD 36 EC 00      [19] 3468 	ld	-20 (ix), #0x00
                                   3469 ;ps_engine.c:455: u32 f1 = rd32(p + 2), f2 = rd32(p + 6);
      0011F1 DD 7E FD         [19] 3470 	ld	a, -3 (ix)
      0011F4 C6 02            [ 7] 3471 	add	a, #0x02
      0011F6 DD 77 FA         [19] 3472 	ld	-6 (ix), a
      0011F9 DD 7E FE         [19] 3473 	ld	a, -2 (ix)
      0011FC CE 00            [ 7] 3474 	adc	a, #0x00
      0011FE DD 77 FB         [19] 3475 	ld	-5 (ix), a
      001201 DD 6E FA         [19] 3476 	ld	l, -6 (ix)
                                   3477 ;	spillPairReg hl
                                   3478 ;	spillPairReg hl
      001204 DD 66 FB         [19] 3479 	ld	h, -5 (ix)
                                   3480 ;	spillPairReg hl
                                   3481 ;	spillPairReg hl
      001207 CDr17r03         [17] 3482 	call	_rd32
      00120A DD 73 F8         [19] 3483 	ld	-8 (ix), e
      00120D DD 72 F9         [19] 3484 	ld	-7 (ix), d
      001210 DD 75 FA         [19] 3485 	ld	-6 (ix), l
      001213 DD 74 FB         [19] 3486 	ld	-5 (ix), h
      001216 21 0B 00         [10] 3487 	ld	hl, #11
      001219 39               [11] 3488 	add	hl, sp
      00121A EB               [ 4] 3489 	ex	de, hl
      00121B 21 16 00         [10] 3490 	ld	hl, #22
      00121E 39               [11] 3491 	add	hl, sp
      00121F 01 04 00         [10] 3492 	ld	bc, #4
      001222 ED B0            [21] 3493 	ldir
      001224 DD 7E FD         [19] 3494 	ld	a, -3 (ix)
      001227 C6 06            [ 7] 3495 	add	a, #0x06
      001229 DD 77 FA         [19] 3496 	ld	-6 (ix), a
      00122C DD 7E FE         [19] 3497 	ld	a, -2 (ix)
      00122F CE 00            [ 7] 3498 	adc	a, #0x00
      001231 DD 77 FB         [19] 3499 	ld	-5 (ix), a
      001234 DD 6E FA         [19] 3500 	ld	l, -6 (ix)
                                   3501 ;	spillPairReg hl
                                   3502 ;	spillPairReg hl
      001237 DD 66 FB         [19] 3503 	ld	h, -5 (ix)
                                   3504 ;	spillPairReg hl
                                   3505 ;	spillPairReg hl
      00123A CDr17r03         [17] 3506 	call	_rd32
      00123D DD 73 F8         [19] 3507 	ld	-8 (ix), e
      001240 DD 72 F9         [19] 3508 	ld	-7 (ix), d
      001243 DD 75 FA         [19] 3509 	ld	-6 (ix), l
      001246 DD 74 FB         [19] 3510 	ld	-5 (ix), h
      001249 21 0F 00         [10] 3511 	ld	hl, #15
      00124C 39               [11] 3512 	add	hl, sp
      00124D EB               [ 4] 3513 	ex	de, hl
      00124E 21 16 00         [10] 3514 	ld	hl, #22
      001251 39               [11] 3515 	add	hl, sp
      001252 01 04 00         [10] 3516 	ld	bc, #4
      001255 ED B0            [21] 3517 	ldir
                                   3518 ;ps_engine.c:456: for (i = 0; i < g_ncells; i++) {
      001257 DD 7E FF         [19] 3519 	ld	a, -1 (ix)
      00125A E6 01            [ 7] 3520 	and	a, #0x01
      00125C DD 77 F5         [19] 3521 	ld	-11 (ix), a
      00125F DD 36 F6 00      [19] 3522 	ld	-10 (ix), #0x00
      001263 DD 7E FF         [19] 3523 	ld	a, -1 (ix)
      001266 E6 02            [ 7] 3524 	and	a, #0x02
      001268 DD 77 F7         [19] 3525 	ld	-9 (ix), a
      00126B DD 36 F8 00      [19] 3526 	ld	-8 (ix), #0x00
      00126F DD 7E EB         [19] 3527 	ld	a, -21 (ix)
      001272 D6 02            [ 7] 3528 	sub	a, #0x02
      001274 3E 01            [ 7] 3529 	ld	a, #0x01
      001276 28 01            [12] 3530 	jr	Z, 00216$
      001278 AF               [ 4] 3531 	xor	a, a
      001279                       3532 00216$:
      001279 DD 77 F9         [19] 3533 	ld	-7 (ix), a
      00127C DD 36 FF 00      [19] 3534 	ld	-1 (ix), #0x00
      001280                       3535 00123$:
      001280 21rCCr15         [10] 3536 	ld	hl, #_g_ncells
      001283 DD 7E FF         [19] 3537 	ld	a, -1 (ix)
      001286 96               [ 7] 3538 	sub	a, (hl)
      001287 D2rDBr13         [10] 3539 	jp	NC, 00117$
                                   3540 ;ps_engine.c:457: u32 c = lev[i];
      00128A DD 7E FF         [19] 3541 	ld	a, -1 (ix)
      00128D DD 77 FA         [19] 3542 	ld	-6 (ix), a
      001290 DD 36 FB 00      [19] 3543 	ld	-5 (ix), #0x00
      001294 DD 7E FA         [19] 3544 	ld	a, -6 (ix)
      001297 DD 77 E8         [19] 3545 	ld	-24 (ix), a
      00129A DD 7E FB         [19] 3546 	ld	a, -5 (ix)
      00129D DD 77 E9         [19] 3547 	ld	-23 (ix), a
      0012A0 06 02            [ 7] 3548 	ld	b, #0x02
      0012A2                       3549 00217$:
      0012A2 DD CB E8 26      [23] 3550 	sla	-24 (ix)
      0012A6 DD CB E9 16      [23] 3551 	rl	-23 (ix)
      0012AA 10 F6            [13] 3552 	djnz	00217$
      0012AC 3ErC8            [ 7] 3553 	ld	a, #<(_lev)
      0012AE DD 86 E8         [19] 3554 	add	a, -24 (ix)
      0012B1 DD 77 FA         [19] 3555 	ld	-6 (ix), a
      0012B4 3Es00            [ 7] 3556 	ld	a, #>(_lev)
      0012B6 DD 8E E9         [19] 3557 	adc	a, -23 (ix)
      0012B9 DD 77 FB         [19] 3558 	ld	-5 (ix), a
      0012BC DD 5E FA         [19] 3559 	ld	e, -6 (ix)
      0012BF DD 56 FB         [19] 3560 	ld	d, -5 (ix)
      0012C2 21 00 00         [10] 3561 	ld	hl, #0
      0012C5 39               [11] 3562 	add	hl, sp
      0012C6 EB               [ 4] 3563 	ex	de, hl
      0012C7 01 04 00         [10] 3564 	ld	bc, #0x0004
      0012CA ED B0            [21] 3565 	ldir
                                   3566 ;ps_engine.c:458: u8 m1 = (aggr & 1) ? ((c & f1) == f1) : ((c & f1) != 0);
      0012CC DD 7E E2         [19] 3567 	ld	a, -30 (ix)
      0012CF DD A6 ED         [19] 3568 	and	a, -19 (ix)
      0012D2 DD 77 E6         [19] 3569 	ld	-26 (ix), a
      0012D5 DD 7E E3         [19] 3570 	ld	a, -29 (ix)
      0012D8 DD A6 EE         [19] 3571 	and	a, -18 (ix)
      0012DB DD 77 E7         [19] 3572 	ld	-25 (ix), a
      0012DE DD 7E E4         [19] 3573 	ld	a, -28 (ix)
      0012E1 DD A6 EF         [19] 3574 	and	a, -17 (ix)
      0012E4 DD 77 E8         [19] 3575 	ld	-24 (ix), a
      0012E7 DD 7E E5         [19] 3576 	ld	a, -27 (ix)
      0012EA DD A6 F0         [19] 3577 	and	a, -16 (ix)
      0012ED DD 77 E9         [19] 3578 	ld	-23 (ix), a
      0012F0 DD 7E F6         [19] 3579 	ld	a, -10 (ix)
      0012F3 DD B6 F5         [19] 3580 	or	a, -11 (ix)
      0012F6 28 28            [12] 3581 	jr	Z, 00130$
      0012F8 DD 7E E6         [19] 3582 	ld	a, -26 (ix)
      0012FB DD 96 ED         [19] 3583 	sub	a, -19 (ix)
      0012FE 20 1A            [12] 3584 	jr	NZ, 00218$
      001300 DD 7E E7         [19] 3585 	ld	a, -25 (ix)
      001303 DD 96 EE         [19] 3586 	sub	a, -18 (ix)
      001306 20 12            [12] 3587 	jr	NZ, 00218$
      001308 DD 7E E8         [19] 3588 	ld	a, -24 (ix)
      00130B DD 96 EF         [19] 3589 	sub	a, -17 (ix)
      00130E 20 0A            [12] 3590 	jr	NZ, 00218$
      001310 DD 7E E9         [19] 3591 	ld	a, -23 (ix)
      001313 DD 96 F0         [19] 3592 	sub	a, -16 (ix)
      001316 3E 01            [ 7] 3593 	ld	a, #0x01
      001318 28 01            [12] 3594 	jr	Z, 00219$
      00131A                       3595 00218$:
      00131A AF               [ 4] 3596 	xor	a, a
      00131B                       3597 00219$:
      00131B DD 77 FB         [19] 3598 	ld	-5 (ix), a
      00131E 18 16            [12] 3599 	jr	00131$
      001320                       3600 00130$:
      001320 DD 7E E9         [19] 3601 	ld	a, -23 (ix)
      001323 DD B6 E8         [19] 3602 	or	a, -24 (ix)
      001326 DD B6 E7         [19] 3603 	or	a, -25 (ix)
      001329 DD B6 E6         [19] 3604 	or	a, -26 (ix)
      00132C D6 01            [ 7] 3605 	sub	a,#0x01
      00132E 3E 00            [ 7] 3606 	ld	a, #0x00
      001330 17               [ 4] 3607 	rla
      001331 EE 01            [ 7] 3608 	xor	a, #0x01
      001333 DD 77 FB         [19] 3609 	ld	-5 (ix), a
      001336                       3610 00131$:
      001336 DD 7E FB         [19] 3611 	ld	a, -5 (ix)
      001339 DD 77 FA         [19] 3612 	ld	-6 (ix), a
                                   3613 ;ps_engine.c:459: u8 m2 = (aggr & 2) ? ((c & f2) == f2) : ((c & f2) != 0);
      00133C DD 7E E2         [19] 3614 	ld	a, -30 (ix)
      00133F DD A6 F1         [19] 3615 	and	a, -15 (ix)
      001342 DD 77 E6         [19] 3616 	ld	-26 (ix), a
      001345 DD 7E E3         [19] 3617 	ld	a, -29 (ix)
      001348 DD A6 F2         [19] 3618 	and	a, -14 (ix)
      00134B DD 77 E7         [19] 3619 	ld	-25 (ix), a
      00134E DD 7E E4         [19] 3620 	ld	a, -28 (ix)
      001351 DD A6 F3         [19] 3621 	and	a, -13 (ix)
      001354 DD 77 E8         [19] 3622 	ld	-24 (ix), a
      001357 DD 7E E5         [19] 3623 	ld	a, -27 (ix)
      00135A DD A6 F4         [19] 3624 	and	a, -12 (ix)
      00135D DD 77 E9         [19] 3625 	ld	-23 (ix), a
      001360 DD 7E F8         [19] 3626 	ld	a, -8 (ix)
      001363 DD B6 F7         [19] 3627 	or	a, -9 (ix)
      001366 28 28            [12] 3628 	jr	Z, 00132$
      001368 DD 7E E6         [19] 3629 	ld	a, -26 (ix)
      00136B DD 96 F1         [19] 3630 	sub	a, -15 (ix)
      00136E 20 1A            [12] 3631 	jr	NZ, 00220$
      001370 DD 7E E7         [19] 3632 	ld	a, -25 (ix)
      001373 DD 96 F2         [19] 3633 	sub	a, -14 (ix)
      001376 20 12            [12] 3634 	jr	NZ, 00220$
      001378 DD 7E E8         [19] 3635 	ld	a, -24 (ix)
      00137B DD 96 F3         [19] 3636 	sub	a, -13 (ix)
      00137E 20 0A            [12] 3637 	jr	NZ, 00220$
      001380 DD 7E E9         [19] 3638 	ld	a, -23 (ix)
      001383 DD 96 F4         [19] 3639 	sub	a, -12 (ix)
      001386 3E 01            [ 7] 3640 	ld	a, #0x01
      001388 28 01            [12] 3641 	jr	Z, 00221$
      00138A                       3642 00220$:
      00138A AF               [ 4] 3643 	xor	a, a
      00138B                       3644 00221$:
      00138B DD 77 FB         [19] 3645 	ld	-5 (ix), a
      00138E 18 19            [12] 3646 	jr	00133$
      001390                       3647 00132$:
      001390 DD 7E E9         [19] 3648 	ld	a, -23 (ix)
      001393 DD B6 E8         [19] 3649 	or	a, -24 (ix)
      001396 DD B6 E7         [19] 3650 	or	a, -25 (ix)
      001399 DD B6 E6         [19] 3651 	or	a, -26 (ix)
      00139C D6 01            [ 7] 3652 	sub	a,#0x01
      00139E 3E 00            [ 7] 3653 	ld	a, #0x00
      0013A0 17               [ 4] 3654 	rla
      0013A1 DD 77 FB         [19] 3655 	ld	-5 (ix), a
      0013A4 EE 01            [ 7] 3656 	xor	a, #0x01
      0013A6 DD 77 FB         [19] 3657 	ld	-5 (ix), a
      0013A9                       3658 00133$:
                                   3659 ;ps_engine.c:460: if (type == 2) { if (m1 && !m2) return 0; }        /* ALL  */
      0013A9 DD 7E F9         [19] 3660 	ld	a, -7 (ix)
      0013AC B7               [ 4] 3661 	or	a, a
      0013AD 28 0E            [12] 3662 	jr	Z, 00115$
      0013AF DD 7E FA         [19] 3663 	ld	a, -6 (ix)
      0013B2 B7               [ 4] 3664 	or	a, a
      0013B3 28 20            [12] 3665 	jr	Z, 00124$
      0013B5 DD 7E FB         [19] 3666 	ld	a, -5 (ix)
      0013B8 B7               [ 4] 3667 	or	a,a
      0013B9 20 1A            [12] 3668 	jr	NZ, 00124$
      0013BB 18 40            [12] 3669 	jr	00128$
      0013BD                       3670 00115$:
                                   3671 ;ps_engine.c:461: else if (m1 && m2) { hit = 1; if (type == 0) return 0; else break; }
      0013BD DD 7E FA         [19] 3672 	ld	a, -6 (ix)
      0013C0 B7               [ 4] 3673 	or	a, a
      0013C1 28 12            [12] 3674 	jr	Z, 00124$
      0013C3 DD 7E FB         [19] 3675 	ld	a, -5 (ix)
      0013C6 B7               [ 4] 3676 	or	a, a
      0013C7 28 0C            [12] 3677 	jr	Z, 00124$
      0013C9 DD 36 EC 01      [19] 3678 	ld	-20 (ix), #0x01
      0013CD DD 7E EB         [19] 3679 	ld	a, -21 (ix)
      0013D0 B7               [ 4] 3680 	or	a,a
      0013D1 20 08            [12] 3681 	jr	NZ, 00117$
      0013D3 18 28            [12] 3682 	jr	00128$
      0013D5                       3683 00124$:
                                   3684 ;ps_engine.c:456: for (i = 0; i < g_ncells; i++) {
      0013D5 DD 34 FF         [23] 3685 	inc	-1 (ix)
      0013D8 C3r80r12         [10] 3686 	jp	00123$
      0013DB                       3687 00117$:
                                   3688 ;ps_engine.c:463: if (type == 1 && !hit) return 0;                       /* SOME */
      0013DB DD 7E EB         [19] 3689 	ld	a, -21 (ix)
      0013DE 3D               [ 4] 3690 	dec	a
      0013DF 20 06            [12] 3691 	jr	NZ, 00127$
      0013E1 DD 7E EC         [19] 3692 	ld	a, -20 (ix)
      0013E4 B7               [ 4] 3693 	or	a,a
      0013E5 28 16            [12] 3694 	jr	Z, 00128$
      0013E7                       3695 00127$:
                                   3696 ;ps_engine.c:453: for (w = 0; w < n; w++, p += 10) {
      0013E7 DD 34 FC         [23] 3697 	inc	-4 (ix)
      0013EA DD 7E FD         [19] 3698 	ld	a, -3 (ix)
      0013ED C6 0A            [ 7] 3699 	add	a, #0x0a
      0013EF DD 77 FD         [19] 3700 	ld	-3 (ix), a
      0013F2 D2rC3r11         [10] 3701 	jp	NC,00126$
      0013F5 DD 34 FE         [23] 3702 	inc	-2 (ix)
      0013F8 C3rC3r11         [10] 3703 	jp	00126$
      0013FB                       3704 00121$:
                                   3705 ;ps_engine.c:465: return 1;
      0013FB 3E 01            [ 7] 3706 	ld	a, #0x01
      0013FD                       3707 00128$:
                                   3708 ;ps_engine.c:466: }
      0013FD DD F9            [10] 3709 	ld	sp, ix
      0013FF DD E1            [14] 3710 	pop	ix
      001401 C9               [10] 3711 	ret
                                   3712 ;ps_engine.c:469: static void player_bitset_record(void) {
                                   3713 ;	---------------------------------
                                   3714 ; Function player_bitset_record
                                   3715 ; ---------------------------------
      001402                       3716 _player_bitset_record:
      001402 DD E5            [15] 3717 	push	ix
      001404 DD 21 00 00      [14] 3718 	ld	ix,#0
      001408 DD 39            [15] 3719 	add	ix,sp
      00140A 3B               [ 6] 3720 	dec	sp
                                   3721 ;ps_engine.c:471: for (i = 0; i < 24; i++) pre_player[i] = 0;
      00140B 0E 00            [ 7] 3722 	ld	c, #0x00
      00140D                       3723 00105$:
      00140D 21rD0r15         [10] 3724 	ld	hl, #_pre_player
      001410 06 00            [ 7] 3725 	ld	b, #0x00
      001412 09               [11] 3726 	add	hl, bc
      001413 36 00            [10] 3727 	ld	(hl), #0x00
      001415 0C               [ 4] 3728 	inc	c
      001416 79               [ 4] 3729 	ld	a, c
      001417 D6 18            [ 7] 3730 	sub	a, #0x18
      001419 38 F2            [12] 3731 	jr	C, 00105$
                                   3732 ;ps_engine.c:472: for (i = 0; i < g_ncells; i++)
      00141B DD 36 FF 00      [19] 3733 	ld	-1 (ix), #0x00
      00141F                       3734 00108$:
      00141F 21rCCr15         [10] 3735 	ld	hl, #_g_ncells
      001422 DD 7E FF         [19] 3736 	ld	a, -1 (ix)
      001425 96               [ 7] 3737 	sub	a, (hl)
      001426 30 52            [12] 3738 	jr	NC, 00110$
                                   3739 ;ps_engine.c:473: if (lev[i] & g_playerMask) pre_player[i >> 3] |= 1 << (i & 7);
      001428 DD 6E FF         [19] 3740 	ld	l, -1 (ix)
                                   3741 ;	spillPairReg hl
                                   3742 ;	spillPairReg hl
      00142B 26 00            [ 7] 3743 	ld	h, #0x00
                                   3744 ;	spillPairReg hl
                                   3745 ;	spillPairReg hl
      00142D 29               [11] 3746 	add	hl, hl
      00142E 29               [11] 3747 	add	hl, hl
      00142F 11rC8r00         [10] 3748 	ld	de, #_lev
      001432 19               [11] 3749 	add	hl, de
      001433 7E               [ 7] 3750 	ld	a, (hl)
      001434 23               [ 6] 3751 	inc	hl
      001435 46               [ 7] 3752 	ld	b, (hl)
      001436 23               [ 6] 3753 	inc	hl
      001437 5E               [ 7] 3754 	ld	e, (hl)
      001438 23               [ 6] 3755 	inc	hl
      001439 56               [ 7] 3756 	ld	d, (hl)
      00143A FD 21r06r00      [14] 3757 	ld	iy, #_g_playerMask
      00143E FD A6 00         [19] 3758 	and	a, 0 (iy)
      001441 4F               [ 4] 3759 	ld	c, a
      001442 78               [ 4] 3760 	ld	a, b
      001443 FD A6 01         [19] 3761 	and	a, 1 (iy)
      001446 47               [ 4] 3762 	ld	b, a
      001447 7B               [ 4] 3763 	ld	a, e
      001448 FD A6 02         [19] 3764 	and	a, 2 (iy)
      00144B 5F               [ 4] 3765 	ld	e, a
      00144C 7A               [ 4] 3766 	ld	a, d
      00144D FD A6 03         [19] 3767 	and	a, 3 (iy)
      001450 B3               [ 4] 3768 	or	a, e
      001451 B0               [ 4] 3769 	or	a, b
      001452 B1               [ 4] 3770 	or	a, c
      001453 28 20            [12] 3771 	jr	Z, 00109$
      001455 DD 4E FF         [19] 3772 	ld	c, -1 (ix)
      001458 CB 39            [ 8] 3773 	srl	c
      00145A CB 39            [ 8] 3774 	srl	c
      00145C CB 39            [ 8] 3775 	srl	c
      00145E 21rD0r15         [10] 3776 	ld	hl, #_pre_player
      001461 06 00            [ 7] 3777 	ld	b, #0x00
      001463 09               [11] 3778 	add	hl, bc
      001464 4E               [ 7] 3779 	ld	c, (hl)
      001465 DD 7E FF         [19] 3780 	ld	a, -1 (ix)
      001468 E6 07            [ 7] 3781 	and	a, #0x07
      00146A 47               [ 4] 3782 	ld	b, a
      00146B 3E 01            [ 7] 3783 	ld	a, #0x01
      00146D 04               [ 4] 3784 	inc	b
      00146E 18 01            [12] 3785 	jr	00140$
      001470                       3786 00139$:
      001470 87               [ 4] 3787 	add	a, a
      001471                       3788 00140$:
      001471 10 FD            [13] 3789 	djnz	00139$
      001473 B1               [ 4] 3790 	or	a, c
      001474 77               [ 7] 3791 	ld	(hl), a
      001475                       3792 00109$:
                                   3793 ;ps_engine.c:472: for (i = 0; i < g_ncells; i++)
      001475 DD 34 FF         [23] 3794 	inc	-1 (ix)
      001478 18 A5            [12] 3795 	jr	00108$
      00147A                       3796 00110$:
                                   3797 ;ps_engine.c:474: }
      00147A 33               [ 6] 3798 	inc	sp
      00147B DD E1            [14] 3799 	pop	ix
      00147D C9               [10] 3800 	ret
                                   3801 ;ps_engine.c:478: static u8 turn(s8 dir) {
                                   3802 ;	---------------------------------
                                   3803 ; Function turn
                                   3804 ; ---------------------------------
      00147E                       3805 _turn:
      00147E DD E5            [15] 3806 	push	ix
      001480 DD 21 00 00      [14] 3807 	ld	ix,#0
      001484 DD 39            [15] 3808 	add	ix,sp
      001486 21 E8 FF         [10] 3809 	ld	hl, #-24
      001489 39               [11] 3810 	add	hl, sp
      00148A F9               [ 6] 3811 	ld	sp, hl
      00148B DD 77 FD         [19] 3812 	ld	-3 (ix), a
                                   3813 ;ps_engine.c:479: u8 i, modified = 0;
      00148E DD 36 E8 00      [19] 3814 	ld	-24 (ix), #0x00
                                   3815 ;ps_engine.c:482: for (i = 0; i < g_ncells; i++) { bak[i] = lev[i]; mov[i] = 0; }
      001492 11rC8r03         [10] 3816 	ld	de, #_mov+0
      001495 DD 36 FF 00      [19] 3817 	ld	-1 (ix), #0x00
      001499                       3818 00132$:
      001499 21rCCr15         [10] 3819 	ld	hl, #_g_ncells
      00149C DD 7E FF         [19] 3820 	ld	a, -1 (ix)
      00149F 96               [ 7] 3821 	sub	a, (hl)
      0014A0 30 45            [12] 3822 	jr	NC, 00101$
      0014A2 DD 6E FF         [19] 3823 	ld	l, -1 (ix)
                                   3824 ;	spillPairReg hl
                                   3825 ;	spillPairReg hl
      0014A5 26 00            [ 7] 3826 	ld	h, #0x00
                                   3827 ;	spillPairReg hl
                                   3828 ;	spillPairReg hl
      0014A7 29               [11] 3829 	add	hl, hl
      0014A8 29               [11] 3830 	add	hl, hl
      0014A9 4D               [ 4] 3831 	ld	c, l
      0014AA 44               [ 4] 3832 	ld	b, h
      0014AB 21rC8r06         [10] 3833 	ld	hl, #_bak
      0014AE 09               [11] 3834 	add	hl, bc
      0014AF DD 75 F7         [19] 3835 	ld	-9 (ix), l
      0014B2 DD 74 F8         [19] 3836 	ld	-8 (ix), h
      0014B5 21rC8r00         [10] 3837 	ld	hl, #_lev
      0014B8 09               [11] 3838 	add	hl, bc
      0014B9 D5               [11] 3839 	push	de
      0014BA C5               [11] 3840 	push	bc
      0014BB EB               [ 4] 3841 	ex	de, hl
      0014BC 21 15 00         [10] 3842 	ld	hl, #21
      0014BF 39               [11] 3843 	add	hl, sp
      0014C0 EB               [ 4] 3844 	ex	de, hl
      0014C1 01 04 00         [10] 3845 	ld	bc, #0x0004
      0014C4 ED B0            [21] 3846 	ldir
      0014C6 DD 5E F7         [19] 3847 	ld	e, -9 (ix)
      0014C9 DD 56 F8         [19] 3848 	ld	d, -8 (ix)
      0014CC 21 15 00         [10] 3849 	ld	hl, #21
      0014CF 39               [11] 3850 	add	hl, sp
      0014D0 01 04 00         [10] 3851 	ld	bc, #0x0004
      0014D3 ED B0            [21] 3852 	ldir
      0014D5 C1               [10] 3853 	pop	bc
      0014D6 D1               [10] 3854 	pop	de
      0014D7 69               [ 4] 3855 	ld	l, c
      0014D8 60               [ 4] 3856 	ld	h, b
      0014D9 19               [11] 3857 	add	hl, de
      0014DA AF               [ 4] 3858 	xor	a, a
      0014DB 77               [ 7] 3859 	ld	(hl), a
      0014DC 23               [ 6] 3860 	inc	hl
      0014DD 77               [ 7] 3861 	ld	(hl), a
      0014DE 23               [ 6] 3862 	inc	hl
      0014DF 77               [ 7] 3863 	ld	(hl), a
      0014E0 23               [ 6] 3864 	inc	hl
      0014E1 77               [ 7] 3865 	ld	(hl), a
      0014E2 DD 34 FF         [23] 3866 	inc	-1 (ix)
      0014E5 18 B2            [12] 3867 	jr	00132$
      0014E7                       3868 00101$:
                                   3869 ;ps_engine.c:483: turn_cmd = 0; turn_msg = 0xFF;
      0014E7 21rCEr15         [10] 3870 	ld	hl, #_turn_cmd
      0014EA 36 00            [10] 3871 	ld	(hl), #0x00
      0014EC 21rCFr15         [10] 3872 	ld	hl, #_turn_msg
      0014EF 36 FF            [10] 3873 	ld	(hl), #0xff
                                   3874 ;ps_engine.c:485: if (dir >= 0) {
      0014F1 DD 7E FD         [19] 3875 	ld	a, -3 (ix)
      0014F4 07               [ 4] 3876 	rlca
      0014F5 E6 01            [ 7] 3877 	and	a,#0x01
      0014F7 4F               [ 4] 3878 	ld	c, a
      0014F8 CB 41            [ 8] 3879 	bit	0, c
      0014FA C2rABr16         [10] 3880 	jp	NZ, 00110$
                                   3881 ;ps_engine.c:486: u32 dm = dirmask_tab[(u8)dir];
      0014FD DD 7E FD         [19] 3882 	ld	a, -3 (ix)
      001500 C6r8D            [ 7] 3883 	add	a, #<(_turn_dirmask_tab_65536_182)
      001502 6F               [ 4] 3884 	ld	l, a
                                   3885 ;	spillPairReg hl
                                   3886 ;	spillPairReg hl
      001503 3E 00            [ 7] 3887 	ld	a, #0x00
      001505 CEs18            [ 7] 3888 	adc	a, #>(_turn_dirmask_tab_65536_182)
      001507 67               [ 4] 3889 	ld	h, a
      001508 7E               [ 7] 3890 	ld	a, (hl)
      001509 DD 77 E9         [19] 3891 	ld	-23 (ix), a
      00150C AF               [ 4] 3892 	xor	a, a
      00150D DD 77 EA         [19] 3893 	ld	-22 (ix), a
      001510 DD 77 EB         [19] 3894 	ld	-21 (ix), a
      001513 DD 77 EC         [19] 3895 	ld	-20 (ix), a
                                   3896 ;ps_engine.c:488: player_bitset_record();
      001516 C5               [11] 3897 	push	bc
      001517 D5               [11] 3898 	push	de
      001518 CDr02r14         [17] 3899 	call	_player_bitset_record
      00151B D1               [10] 3900 	pop	de
      00151C C1               [10] 3901 	pop	bc
                                   3902 ;ps_engine.c:489: for (i = 0; i < g_ncells; i++) {
      00151D DD 36 FE 00      [19] 3903 	ld	-2 (ix), #0x00
      001521                       3904 00138$:
      001521 21rCCr15         [10] 3905 	ld	hl, #_g_ncells
      001524 DD 7E FE         [19] 3906 	ld	a, -2 (ix)
      001527 96               [ 7] 3907 	sub	a, (hl)
      001528 D2rABr16         [10] 3908 	jp	NC, 00110$
                                   3909 ;ps_engine.c:490: if (!(lev[i] & g_playerMask)) continue;
      00152B DD 6E FE         [19] 3910 	ld	l, -2 (ix)
                                   3911 ;	spillPairReg hl
                                   3912 ;	spillPairReg hl
      00152E 26 00            [ 7] 3913 	ld	h, #0x00
                                   3914 ;	spillPairReg hl
                                   3915 ;	spillPairReg hl
      001530 29               [11] 3916 	add	hl, hl
      001531 29               [11] 3917 	add	hl, hl
      001532 DD 75 ED         [19] 3918 	ld	-19 (ix), l
      001535 DD 74 EE         [19] 3919 	ld	-18 (ix), h
      001538 3ErC8            [ 7] 3920 	ld	a, #<(_lev)
      00153A DD 86 ED         [19] 3921 	add	a, -19 (ix)
      00153D DD 77 EF         [19] 3922 	ld	-17 (ix), a
      001540 3Es00            [ 7] 3923 	ld	a, #>(_lev)
      001542 DD 8E EE         [19] 3924 	adc	a, -18 (ix)
      001545 DD 77 F0         [19] 3925 	ld	-16 (ix), a
      001548 DD 6E EF         [19] 3926 	ld	l, -17 (ix)
      00154B DD 66 F0         [19] 3927 	ld	h, -16 (ix)
      00154E 46               [ 7] 3928 	ld	b, (hl)
      00154F 23               [ 6] 3929 	inc	hl
      001550 23               [ 6] 3930 	inc	hl
      001551 7E               [ 7] 3931 	ld	a, (hl)
      001552 2B               [ 6] 3932 	dec	hl
      001553 6E               [ 7] 3933 	ld	l, (hl)
                                   3934 ;	spillPairReg hl
      001554 67               [ 4] 3935 	ld	h, a
                                   3936 ;	spillPairReg hl
                                   3937 ;	spillPairReg hl
      001555 F5               [11] 3938 	push	af
      001556 78               [ 4] 3939 	ld	a, b
      001557 FD 21r06r00      [14] 3940 	ld	iy, #_g_playerMask
      00155B FD A6 00         [19] 3941 	and	a, 0 (iy)
      00155E DD 77 F9         [19] 3942 	ld	-7 (ix), a
      001561 7D               [ 4] 3943 	ld	a, l
      001562 FD A6 01         [19] 3944 	and	a, 1 (iy)
      001565 DD 77 FA         [19] 3945 	ld	-6 (ix), a
      001568 7C               [ 4] 3946 	ld	a, h
      001569 FD A6 02         [19] 3947 	and	a, 2 (iy)
      00156C DD 77 FB         [19] 3948 	ld	-5 (ix), a
      00156F F1               [10] 3949 	pop	af
      001570 FD A6 03         [19] 3950 	and	a, 3 (iy)
      001573 DD 77 FC         [19] 3951 	ld	-4 (ix), a
      001576 DD B6 FB         [19] 3952 	or	a, -5 (ix)
      001579 DD B6 FA         [19] 3953 	or	a, -6 (ix)
      00157C DD B6 F9         [19] 3954 	or	a, -7 (ix)
      00157F CArA5r16         [10] 3955 	jp	Z, 00107$
                                   3956 ;ps_engine.c:491: for (layer = 0, sh = 0; layer < g_nlayers; layer++, sh += 5)
      001582 06 00            [ 7] 3957 	ld	b, #0x00
      001584 DD 36 FF 00      [19] 3958 	ld	-1 (ix), #0x00
      001588                       3959 00135$:
      001588 21r01r00         [10] 3960 	ld	hl, #_g_nlayers
      00158B DD 7E FF         [19] 3961 	ld	a, -1 (ix)
      00158E 96               [ 7] 3962 	sub	a, (hl)
      00158F D2rA5r16         [10] 3963 	jp	NC, 00107$
                                   3964 ;ps_engine.c:492: if (lev[i] & g_playerMask & g_layerMasks[layer])
      001592 D5               [11] 3965 	push	de
      001593 C5               [11] 3966 	push	bc
      001594 DD 5E EF         [19] 3967 	ld	e, -17 (ix)
      001597 DD 56 F0         [19] 3968 	ld	d, -16 (ix)
      00159A 21 15 00         [10] 3969 	ld	hl, #21
      00159D 39               [11] 3970 	add	hl, sp
      00159E EB               [ 4] 3971 	ex	de, hl
      00159F 01 04 00         [10] 3972 	ld	bc, #0x0004
      0015A2 ED B0            [21] 3973 	ldir
      0015A4 C1               [10] 3974 	pop	bc
      0015A5 D1               [10] 3975 	pop	de
      0015A6 DD 7E F9         [19] 3976 	ld	a, -7 (ix)
      0015A9 FD 21r06r00      [14] 3977 	ld	iy, #_g_playerMask
      0015AD FD A6 00         [19] 3978 	and	a, 0 (iy)
      0015B0 DD 77 F1         [19] 3979 	ld	-15 (ix), a
      0015B3 DD 7E FA         [19] 3980 	ld	a, -6 (ix)
      0015B6 FD A6 01         [19] 3981 	and	a, 1 (iy)
      0015B9 DD 77 F2         [19] 3982 	ld	-14 (ix), a
      0015BC DD 7E FB         [19] 3983 	ld	a, -5 (ix)
      0015BF FD A6 02         [19] 3984 	and	a, 2 (iy)
      0015C2 DD 77 F3         [19] 3985 	ld	-13 (ix), a
      0015C5 DD 7E FC         [19] 3986 	ld	a, -4 (ix)
      0015C8 FD A6 03         [19] 3987 	and	a, 3 (iy)
      0015CB DD 77 F4         [19] 3988 	ld	-12 (ix), a
      0015CE DD 6E FF         [19] 3989 	ld	l, -1 (ix)
                                   3990 ;	spillPairReg hl
                                   3991 ;	spillPairReg hl
      0015D1 26 00            [ 7] 3992 	ld	h, #0x00
                                   3993 ;	spillPairReg hl
                                   3994 ;	spillPairReg hl
      0015D3 29               [11] 3995 	add	hl, hl
      0015D4 29               [11] 3996 	add	hl, hl
      0015D5 3Er0E            [ 7] 3997 	ld	a, #<(_g_layerMasks)
      0015D7 85               [ 4] 3998 	add	a, l
      0015D8 6F               [ 4] 3999 	ld	l, a
                                   4000 ;	spillPairReg hl
                                   4001 ;	spillPairReg hl
      0015D9 3Es00            [ 7] 4002 	ld	a, #>(_g_layerMasks)
      0015DB 8C               [ 4] 4003 	adc	a, h
      0015DC 67               [ 4] 4004 	ld	h, a
                                   4005 ;	spillPairReg hl
                                   4006 ;	spillPairReg hl
      0015DD D5               [11] 4007 	push	de
      0015DE C5               [11] 4008 	push	bc
      0015DF EB               [ 4] 4009 	ex	de, hl
      0015E0 21 11 00         [10] 4010 	ld	hl, #17
      0015E3 39               [11] 4011 	add	hl, sp
      0015E4 EB               [ 4] 4012 	ex	de, hl
      0015E5 01 04 00         [10] 4013 	ld	bc, #0x0004
      0015E8 ED B0            [21] 4014 	ldir
      0015EA C1               [10] 4015 	pop	bc
      0015EB D1               [10] 4016 	pop	de
      0015EC DD 7E F1         [19] 4017 	ld	a, -15 (ix)
      0015EF DD A6 F5         [19] 4018 	and	a, -11 (ix)
      0015F2 DD 77 F9         [19] 4019 	ld	-7 (ix), a
      0015F5 DD 7E F2         [19] 4020 	ld	a, -14 (ix)
      0015F8 DD A6 F6         [19] 4021 	and	a, -10 (ix)
      0015FB DD 77 FA         [19] 4022 	ld	-6 (ix), a
      0015FE DD 7E F3         [19] 4023 	ld	a, -13 (ix)
      001601 DD A6 F7         [19] 4024 	and	a, -9 (ix)
      001604 DD 77 FB         [19] 4025 	ld	-5 (ix), a
      001607 DD 7E F4         [19] 4026 	ld	a, -12 (ix)
      00160A DD A6 F8         [19] 4027 	and	a, -8 (ix)
      00160D DD 77 FC         [19] 4028 	ld	-4 (ix), a
      001610 DD B6 FB         [19] 4029 	or	a, -5 (ix)
      001613 DD B6 FA         [19] 4030 	or	a, -6 (ix)
      001616 DD B6 F9         [19] 4031 	or	a, -7 (ix)
      001619 CAr9Br16         [10] 4032 	jp	Z, 00136$
                                   4033 ;ps_engine.c:493: mov[i] |= dm << sh;
      00161C 3ErC8            [ 7] 4034 	ld	a, #<(_mov)
      00161E DD 86 ED         [19] 4035 	add	a, -19 (ix)
      001621 6F               [ 4] 4036 	ld	l, a
                                   4037 ;	spillPairReg hl
                                   4038 ;	spillPairReg hl
      001622 3Es03            [ 7] 4039 	ld	a, #>(_mov)
      001624 DD 8E EE         [19] 4040 	adc	a, -18 (ix)
      001627 67               [ 4] 4041 	ld	h, a
                                   4042 ;	spillPairReg hl
                                   4043 ;	spillPairReg hl
      001628 E5               [11] 4044 	push	hl
      001629 D5               [11] 4045 	push	de
      00162A C5               [11] 4046 	push	bc
      00162B EB               [ 4] 4047 	ex	de, hl
      00162C 21 0F 00         [10] 4048 	ld	hl, #15
      00162F 39               [11] 4049 	add	hl, sp
      001630 EB               [ 4] 4050 	ex	de, hl
      001631 01 04 00         [10] 4051 	ld	bc, #0x0004
      001634 ED B0            [21] 4052 	ldir
      001636 C1               [10] 4053 	pop	bc
      001637 D1               [10] 4054 	pop	de
      001638 E1               [10] 4055 	pop	hl
      001639 C5               [11] 4056 	push	bc
      00163A DD 7E E9         [19] 4057 	ld	a, -23 (ix)
      00163D DD 77 F5         [19] 4058 	ld	-11 (ix), a
      001640 DD 7E EA         [19] 4059 	ld	a, -22 (ix)
      001643 DD 77 F6         [19] 4060 	ld	-10 (ix), a
      001646 DD 7E EB         [19] 4061 	ld	a, -21 (ix)
      001649 DD 77 F7         [19] 4062 	ld	-9 (ix), a
      00164C DD 7E EC         [19] 4063 	ld	a, -20 (ix)
      00164F DD 77 F8         [19] 4064 	ld	-8 (ix), a
      001652 F1               [10] 4065 	pop	af
      001653 3C               [ 4] 4066 	inc	a
      001654 18 10            [12] 4067 	jr	00294$
      001656                       4068 00293$:
      001656 DD CB F5 26      [23] 4069 	sla	-11 (ix)
      00165A DD CB F6 16      [23] 4070 	rl	-10 (ix)
      00165E DD CB F7 16      [23] 4071 	rl	-9 (ix)
      001662 DD CB F8 16      [23] 4072 	rl	-8 (ix)
      001666                       4073 00294$:
      001666 3D               [ 4] 4074 	dec	a
      001667 20 ED            [12] 4075 	jr	NZ,00293$
      001669 DD 7E F1         [19] 4076 	ld	a, -15 (ix)
      00166C DD B6 F5         [19] 4077 	or	a, -11 (ix)
      00166F DD 77 F9         [19] 4078 	ld	-7 (ix), a
      001672 DD 7E F2         [19] 4079 	ld	a, -14 (ix)
      001675 DD B6 F6         [19] 4080 	or	a, -10 (ix)
      001678 DD 77 FA         [19] 4081 	ld	-6 (ix), a
      00167B DD 7E F3         [19] 4082 	ld	a, -13 (ix)
      00167E DD B6 F7         [19] 4083 	or	a, -9 (ix)
      001681 DD 77 FB         [19] 4084 	ld	-5 (ix), a
      001684 DD 7E F4         [19] 4085 	ld	a, -12 (ix)
      001687 DD B6 F8         [19] 4086 	or	a, -8 (ix)
      00168A DD 77 FC         [19] 4087 	ld	-4 (ix), a
      00168D D5               [11] 4088 	push	de
      00168E C5               [11] 4089 	push	bc
      00168F EB               [ 4] 4090 	ex	de,hl
      001690 21 15 00         [10] 4091 	ld	hl, #21
      001693 39               [11] 4092 	add	hl, sp
      001694 01 04 00         [10] 4093 	ld	bc, #0x0004
      001697 ED B0            [21] 4094 	ldir
      001699 C1               [10] 4095 	pop	bc
      00169A D1               [10] 4096 	pop	de
      00169B                       4097 00136$:
                                   4098 ;ps_engine.c:491: for (layer = 0, sh = 0; layer < g_nlayers; layer++, sh += 5)
      00169B DD 34 FF         [23] 4099 	inc	-1 (ix)
      00169E 78               [ 4] 4100 	ld	a, b
      00169F C6 05            [ 7] 4101 	add	a, #0x05
      0016A1 47               [ 4] 4102 	ld	b, a
      0016A2 C3r88r15         [10] 4103 	jp	00135$
      0016A5                       4104 00107$:
                                   4105 ;ps_engine.c:489: for (i = 0; i < g_ncells; i++) {
      0016A5 DD 34 FE         [23] 4106 	inc	-2 (ix)
      0016A8 C3r21r15         [10] 4107 	jp	00138$
      0016AB                       4108 00110$:
                                   4109 ;ps_engine.c:497: apply_rules(g_far_rules);
      0016AB C5               [11] 4110 	push	bc
      0016AC D5               [11] 4111 	push	de
      0016AD 21r7Cr00         [10] 4112 	ld	hl, #_g_far_rules
      0016B0 CDr2Dr0D         [17] 4113 	call	_apply_rules
      0016B3 CDr12r10         [17] 4114 	call	_resolve_movements
      0016B6 21r7Fr00         [10] 4115 	ld	hl, #_g_far_late
      0016B9 CDr2Dr0D         [17] 4116 	call	_apply_rules
      0016BC D1               [10] 4117 	pop	de
      0016BD C1               [10] 4118 	pop	bc
                                   4119 ;ps_engine.c:502: if (dir >= 0 && dir <= 3 && (g_flags & FLG_REQPLAYERMOVE)) {
      0016BE CB 41            [ 8] 4120 	bit	0, c
      0016C0 C2r5Er17         [10] 4121 	jp	NZ, 00118$
      0016C3 3E 03            [ 7] 4122 	ld	a, #0x03
      0016C5 DD 96 FD         [19] 4123 	sub	a, -3 (ix)
      0016C8 E2rCDr16         [10] 4124 	jp	PO, 00295$
      0016CB EE 80            [ 7] 4125 	xor	a, #0x80
      0016CD                       4126 00295$:
      0016CD FAr5Er17         [10] 4127 	jp	M, 00118$
      0016D0 3Ar03r00         [13] 4128 	ld	a, (_g_flags+0)
      0016D3 CB 5F            [ 8] 4129 	bit	3, a
      0016D5 CAr5Er17         [10] 4130 	jp	Z,00118$
                                   4131 ;ps_engine.c:503: u8 somemoved = 0;
      0016D8 0E 00            [ 7] 4132 	ld	c, #0x00
                                   4133 ;ps_engine.c:504: for (i = 0; i < g_ncells; i++)
      0016DA DD 36 FF 00      [19] 4134 	ld	-1 (ix), #0x00
      0016DE                       4135 00140$:
      0016DE 21rCCr15         [10] 4136 	ld	hl, #_g_ncells
      0016E1 DD 7E FF         [19] 4137 	ld	a, -1 (ix)
      0016E4 96               [ 7] 4138 	sub	a, (hl)
      0016E5 30 6B            [12] 4139 	jr	NC, 00114$
                                   4140 ;ps_engine.c:505: if ((pre_player[i >> 3] & (1 << (i & 7))) &&
      0016E7 DD 7E FF         [19] 4141 	ld	a, -1 (ix)
      0016EA 0F               [ 4] 4142 	rrca
      0016EB 0F               [ 4] 4143 	rrca
      0016EC 0F               [ 4] 4144 	rrca
      0016ED E6 1F            [ 7] 4145 	and	a, #0x1f
      0016EF C6rD0            [ 7] 4146 	add	a, #<(_pre_player)
      0016F1 6F               [ 4] 4147 	ld	l, a
                                   4148 ;	spillPairReg hl
                                   4149 ;	spillPairReg hl
      0016F2 3E 00            [ 7] 4150 	ld	a, #0x00
      0016F4 CEs15            [ 7] 4151 	adc	a, #>(_pre_player)
      0016F6 67               [ 4] 4152 	ld	h, a
      0016F7 7E               [ 7] 4153 	ld	a, (hl)
      0016F8 F5               [11] 4154 	push	af
      0016F9 DD 7E FF         [19] 4155 	ld	a, -1 (ix)
      0016FC E6 07            [ 7] 4156 	and	a, #0x07
      0016FE 47               [ 4] 4157 	ld	b, a
      0016FF F1               [10] 4158 	pop	af
      001700 21 01 00         [10] 4159 	ld	hl, #0x0001
      001703 04               [ 4] 4160 	inc	b
      001704 18 01            [12] 4161 	jr	00298$
      001706                       4162 00297$:
      001706 29               [11] 4163 	add	hl, hl
      001707                       4164 00298$:
      001707 10 FD            [13] 4165 	djnz	00297$
      001709 06 00            [ 7] 4166 	ld	b, #0x00
      00170B A5               [ 4] 4167 	and	a, l
      00170C 6F               [ 4] 4168 	ld	l, a
                                   4169 ;	spillPairReg hl
                                   4170 ;	spillPairReg hl
      00170D 78               [ 4] 4171 	ld	a, b
      00170E A4               [ 4] 4172 	and	a, h
      00170F B5               [ 4] 4173 	or	a, l
      001710 28 3B            [12] 4174 	jr	Z, 00141$
                                   4175 ;ps_engine.c:506: !(lev[i] & g_playerMask)) { somemoved = 1; break; }
      001712 DD 6E FF         [19] 4176 	ld	l, -1 (ix)
                                   4177 ;	spillPairReg hl
                                   4178 ;	spillPairReg hl
      001715 26 00            [ 7] 4179 	ld	h, #0x00
                                   4180 ;	spillPairReg hl
                                   4181 ;	spillPairReg hl
      001717 29               [11] 4182 	add	hl, hl
      001718 29               [11] 4183 	add	hl, hl
      001719 7D               [ 4] 4184 	ld	a, l
      00171A C6rC8            [ 7] 4185 	add	a, #<(_lev)
      00171C 6F               [ 4] 4186 	ld	l, a
                                   4187 ;	spillPairReg hl
                                   4188 ;	spillPairReg hl
      00171D 7C               [ 4] 4189 	ld	a, h
      00171E CEs00            [ 7] 4190 	adc	a, #>(_lev)
      001720 67               [ 4] 4191 	ld	h, a
                                   4192 ;	spillPairReg hl
                                   4193 ;	spillPairReg hl
      001721 7E               [ 7] 4194 	ld	a, (hl)
      001722 23               [ 6] 4195 	inc	hl
      001723 46               [ 7] 4196 	ld	b, (hl)
      001724 23               [ 6] 4197 	inc	hl
      001725 23               [ 6] 4198 	inc	hl
      001726 F5               [11] 4199 	push	af
      001727 7E               [ 7] 4200 	ld	a, (hl)
      001728 2B               [ 6] 4201 	dec	hl
      001729 6E               [ 7] 4202 	ld	l, (hl)
                                   4203 ;	spillPairReg hl
      00172A 67               [ 4] 4204 	ld	h, a
                                   4205 ;	spillPairReg hl
                                   4206 ;	spillPairReg hl
      00172B F1               [10] 4207 	pop	af
      00172C FD 21r06r00      [14] 4208 	ld	iy, #_g_playerMask
      001730 FD A6 00         [19] 4209 	and	a, 0 (iy)
      001733 F5               [11] 4210 	push	af
      001734 78               [ 4] 4211 	ld	a, b
      001735 FD A6 01         [19] 4212 	and	a, 1 (iy)
      001738 47               [ 4] 4213 	ld	b, a
      001739 7D               [ 4] 4214 	ld	a, l
      00173A FD A6 02         [19] 4215 	and	a, 2 (iy)
      00173D 6F               [ 4] 4216 	ld	l, a
                                   4217 ;	spillPairReg hl
                                   4218 ;	spillPairReg hl
      00173E 7C               [ 4] 4219 	ld	a, h
      00173F FD A6 03         [19] 4220 	and	a, 3 (iy)
      001742 67               [ 4] 4221 	ld	h, a
                                   4222 ;	spillPairReg hl
                                   4223 ;	spillPairReg hl
      001743 F1               [10] 4224 	pop	af
      001744 B4               [ 4] 4225 	or	a, h
      001745 B5               [ 4] 4226 	or	a, l
      001746 B0               [ 4] 4227 	or	a, b
      001747 20 04            [12] 4228 	jr	NZ, 00141$
      001749 0E 01            [ 7] 4229 	ld	c, #0x01
      00174B 18 05            [12] 4230 	jr	00114$
      00174D                       4231 00141$:
                                   4232 ;ps_engine.c:504: for (i = 0; i < g_ncells; i++)
      00174D DD 34 FF         [23] 4233 	inc	-1 (ix)
      001750 18 8C            [12] 4234 	jr	00140$
      001752                       4235 00114$:
                                   4236 ;ps_engine.c:507: if (!somemoved) turn_cmd |= CMD_CANCEL;
      001752 79               [ 4] 4237 	ld	a, c
      001753 B7               [ 4] 4238 	or	a, a
      001754 20 08            [12] 4239 	jr	NZ, 00118$
      001756 3ArCEr15         [13] 4240 	ld	a, (_turn_cmd+0)
      001759 F6 01            [ 7] 4241 	or	a, #0x01
      00175B 32rCEr15         [13] 4242 	ld	(_turn_cmd+0), a
      00175E                       4243 00118$:
                                   4244 ;ps_engine.c:510: if (turn_cmd & CMD_CANCEL) {
      00175E 3ArCEr15         [13] 4245 	ld	a, (_turn_cmd+0)
      001761 DD 77 FF         [19] 4246 	ld	-1 (ix), a
      001764 DD CB FF 46      [20] 4247 	bit	0, -1 (ix)
      001768 28 6A            [12] 4248 	jr	Z, 00175$
                                   4249 ;ps_engine.c:511: for (i = 0; i < g_ncells; i++) { lev[i] = bak[i]; mov[i] = 0; }
      00176A 01rC8r06         [10] 4250 	ld	bc, #_bak
      00176D DD 36 FF 00      [19] 4251 	ld	-1 (ix), #0x00
      001771                       4252 00143$:
      001771 21rCCr15         [10] 4253 	ld	hl, #_g_ncells
      001774 DD 7E FF         [19] 4254 	ld	a, -1 (ix)
      001777 96               [ 7] 4255 	sub	a, (hl)
      001778 30 56            [12] 4256 	jr	NC, 00121$
      00177A DD 6E FF         [19] 4257 	ld	l, -1 (ix)
                                   4258 ;	spillPairReg hl
                                   4259 ;	spillPairReg hl
      00177D 26 00            [ 7] 4260 	ld	h, #0x00
                                   4261 ;	spillPairReg hl
                                   4262 ;	spillPairReg hl
      00177F 29               [11] 4263 	add	hl, hl
      001780 29               [11] 4264 	add	hl, hl
      001781 DD 75 F5         [19] 4265 	ld	-11 (ix), l
      001784 DD 74 F6         [19] 4266 	ld	-10 (ix), h
      001787 3ErC8            [ 7] 4267 	ld	a, #<(_lev)
      001789 DD 86 F5         [19] 4268 	add	a, -11 (ix)
      00178C DD 77 F7         [19] 4269 	ld	-9 (ix), a
      00178F 3Es00            [ 7] 4270 	ld	a, #>(_lev)
      001791 DD 8E F6         [19] 4271 	adc	a, -10 (ix)
      001794 DD 77 F8         [19] 4272 	ld	-8 (ix), a
      001797 DD 6E F5         [19] 4273 	ld	l, -11 (ix)
      00179A DD 66 F6         [19] 4274 	ld	h, -10 (ix)
      00179D 09               [11] 4275 	add	hl, bc
      00179E D5               [11] 4276 	push	de
      00179F C5               [11] 4277 	push	bc
      0017A0 EB               [ 4] 4278 	ex	de, hl
      0017A1 21 15 00         [10] 4279 	ld	hl, #21
      0017A4 39               [11] 4280 	add	hl, sp
      0017A5 EB               [ 4] 4281 	ex	de, hl
      0017A6 01 04 00         [10] 4282 	ld	bc, #0x0004
      0017A9 ED B0            [21] 4283 	ldir
      0017AB DD 5E F7         [19] 4284 	ld	e, -9 (ix)
      0017AE DD 56 F8         [19] 4285 	ld	d, -8 (ix)
      0017B1 21 15 00         [10] 4286 	ld	hl, #21
      0017B4 39               [11] 4287 	add	hl, sp
      0017B5 01 04 00         [10] 4288 	ld	bc, #0x0004
      0017B8 ED B0            [21] 4289 	ldir
      0017BA C1               [10] 4290 	pop	bc
      0017BB D1               [10] 4291 	pop	de
      0017BC DD 6E F5         [19] 4292 	ld	l, -11 (ix)
      0017BF DD 66 F6         [19] 4293 	ld	h, -10 (ix)
      0017C2 19               [11] 4294 	add	hl, de
      0017C3 AF               [ 4] 4295 	xor	a, a
      0017C4 77               [ 7] 4296 	ld	(hl), a
      0017C5 23               [ 6] 4297 	inc	hl
      0017C6 77               [ 7] 4298 	ld	(hl), a
      0017C7 23               [ 6] 4299 	inc	hl
      0017C8 77               [ 7] 4300 	ld	(hl), a
      0017C9 23               [ 6] 4301 	inc	hl
      0017CA 77               [ 7] 4302 	ld	(hl), a
      0017CB DD 34 FF         [23] 4303 	inc	-1 (ix)
      0017CE 18 A1            [12] 4304 	jr	00143$
      0017D0                       4305 00121$:
                                   4306 ;ps_engine.c:512: return 0;
      0017D0 AF               [ 4] 4307 	xor	a, a
      0017D1 C3r88r18         [10] 4308 	jp	00151$
                                   4309 ;ps_engine.c:514: for (i = 0; i < g_ncells; i++)
      0017D4                       4310 00175$:
      0017D4 01rC8r00         [10] 4311 	ld	bc, #_lev
      0017D7 1E 00            [ 7] 4312 	ld	e, #0x00
      0017D9                       4313 00146$:
      0017D9 21rCCr15         [10] 4314 	ld	hl, #_g_ncells
      0017DC 7B               [ 4] 4315 	ld	a, e
      0017DD 96               [ 7] 4316 	sub	a, (hl)
      0017DE 30 5F            [12] 4317 	jr	NC, 00126$
                                   4318 ;ps_engine.c:515: if (lev[i] != bak[i]) { modified = 1; break; }
      0017E0 6B               [ 4] 4319 	ld	l, e
                                   4320 ;	spillPairReg hl
                                   4321 ;	spillPairReg hl
      0017E1 26 00            [ 7] 4322 	ld	h, #0x00
                                   4323 ;	spillPairReg hl
                                   4324 ;	spillPairReg hl
      0017E3 29               [11] 4325 	add	hl, hl
      0017E4 29               [11] 4326 	add	hl, hl
      0017E5 DD 75 FB         [19] 4327 	ld	-5 (ix), l
      0017E8 DD 74 FC         [19] 4328 	ld	-4 (ix), h
      0017EB 09               [11] 4329 	add	hl, bc
      0017EC D5               [11] 4330 	push	de
      0017ED C5               [11] 4331 	push	bc
      0017EE EB               [ 4] 4332 	ex	de, hl
      0017EF 21 11 00         [10] 4333 	ld	hl, #17
      0017F2 39               [11] 4334 	add	hl, sp
      0017F3 EB               [ 4] 4335 	ex	de, hl
      0017F4 01 04 00         [10] 4336 	ld	bc, #0x0004
      0017F7 ED B0            [21] 4337 	ldir
      0017F9 C1               [10] 4338 	pop	bc
      0017FA D1               [10] 4339 	pop	de
      0017FB 3ErC8            [ 7] 4340 	ld	a, #<(_bak)
      0017FD DD 86 FB         [19] 4341 	add	a, -5 (ix)
      001800 6F               [ 4] 4342 	ld	l, a
                                   4343 ;	spillPairReg hl
                                   4344 ;	spillPairReg hl
      001801 3Es06            [ 7] 4345 	ld	a, #>(_bak)
      001803 DD 8E FC         [19] 4346 	adc	a, -4 (ix)
      001806 67               [ 4] 4347 	ld	h, a
                                   4348 ;	spillPairReg hl
                                   4349 ;	spillPairReg hl
      001807 D5               [11] 4350 	push	de
      001808 C5               [11] 4351 	push	bc
      001809 EB               [ 4] 4352 	ex	de, hl
      00180A 21 15 00         [10] 4353 	ld	hl, #21
      00180D 39               [11] 4354 	add	hl, sp
      00180E EB               [ 4] 4355 	ex	de, hl
      00180F 01 04 00         [10] 4356 	ld	bc, #0x0004
      001812 ED B0            [21] 4357 	ldir
      001814 C1               [10] 4358 	pop	bc
      001815 D1               [10] 4359 	pop	de
      001816 DD 7E F5         [19] 4360 	ld	a, -11 (ix)
      001819 DD 96 F9         [19] 4361 	sub	a, -7 (ix)
      00181C 20 18            [12] 4362 	jr	NZ, 00300$
      00181E DD 7E F6         [19] 4363 	ld	a, -10 (ix)
      001821 DD 96 FA         [19] 4364 	sub	a, -6 (ix)
      001824 20 10            [12] 4365 	jr	NZ, 00300$
      001826 DD 7E F7         [19] 4366 	ld	a, -9 (ix)
      001829 DD 96 FB         [19] 4367 	sub	a, -5 (ix)
      00182C 20 08            [12] 4368 	jr	NZ, 00300$
      00182E DD 7E F8         [19] 4369 	ld	a, -8 (ix)
      001831 DD 96 FC         [19] 4370 	sub	a, -4 (ix)
      001834 28 06            [12] 4371 	jr	Z, 00147$
      001836                       4372 00300$:
      001836 DD 36 E8 01      [19] 4373 	ld	-24 (ix), #0x01
      00183A 18 03            [12] 4374 	jr	00126$
      00183C                       4375 00147$:
                                   4376 ;ps_engine.c:514: for (i = 0; i < g_ncells; i++)
      00183C 1C               [ 4] 4377 	inc	e
      00183D 18 9A            [12] 4378 	jr	00146$
      00183F                       4379 00126$:
                                   4380 ;ps_engine.c:516: if ((turn_cmd & CMD_CHECKPOINT) && modified)
      00183F DD CB FF 66      [20] 4381 	bit	4, -1 (ix)
      001843 28 40            [12] 4382 	jr	Z, 00129$
      001845 DD 7E E8         [19] 4383 	ld	a, -24 (ix)
      001848 B7               [ 4] 4384 	or	a, a
      001849 28 3A            [12] 4385 	jr	Z, 00129$
                                   4386 ;ps_engine.c:517: for (i = 0; i < g_ncells; i++) chkpt[i] = lev[i];
      00184B DD 36 FF 00      [19] 4387 	ld	-1 (ix), #0x00
      00184F                       4388 00149$:
      00184F 21rCCr15         [10] 4389 	ld	hl, #_g_ncells
      001852 DD 7E FF         [19] 4390 	ld	a, -1 (ix)
      001855 96               [ 7] 4391 	sub	a, (hl)
      001856 30 2D            [12] 4392 	jr	NC, 00129$
      001858 DD 6E FF         [19] 4393 	ld	l, -1 (ix)
                                   4394 ;	spillPairReg hl
                                   4395 ;	spillPairReg hl
      00185B 26 00            [ 7] 4396 	ld	h, #0x00
                                   4397 ;	spillPairReg hl
                                   4398 ;	spillPairReg hl
      00185D 29               [11] 4399 	add	hl, hl
      00185E 29               [11] 4400 	add	hl, hl
      00185F 4D               [ 4] 4401 	ld	c, l
      001860 44               [ 4] 4402 	ld	b, h
      001861 21rC8r09         [10] 4403 	ld	hl, #_chkpt
      001864 09               [11] 4404 	add	hl, bc
      001865 EB               [ 4] 4405 	ex	de, hl
      001866 21rC8r00         [10] 4406 	ld	hl, #_lev
      001869 09               [11] 4407 	add	hl, bc
      00186A EB               [ 4] 4408 	ex	de, hl
      00186B E5               [11] 4409 	push	hl
      00186C 21 13 00         [10] 4410 	ld	hl, #19
      00186F 39               [11] 4411 	add	hl, sp
      001870 EB               [ 4] 4412 	ex	de, hl
      001871 01 04 00         [10] 4413 	ld	bc, #0x0004
      001874 ED B0            [21] 4414 	ldir
      001876 D1               [10] 4415 	pop	de
      001877 21 11 00         [10] 4416 	ld	hl, #17
      00187A 39               [11] 4417 	add	hl, sp
      00187B 01 04 00         [10] 4418 	ld	bc, #0x0004
      00187E ED B0            [21] 4419 	ldir
      001880 DD 34 FF         [23] 4420 	inc	-1 (ix)
      001883 18 CA            [12] 4421 	jr	00149$
      001885                       4422 00129$:
                                   4423 ;ps_engine.c:518: return modified;
      001885 DD 7E E8         [19] 4424 	ld	a, -24 (ix)
      001888                       4425 00151$:
                                   4426 ;ps_engine.c:519: }
      001888 DD F9            [10] 4427 	ld	sp, ix
      00188A DD E1            [14] 4428 	pop	ix
      00188C C9               [10] 4429 	ret
      00188D                       4430 _turn_dirmask_tab_65536_182:
      00188D 01                    4431 	.db #0x01	; 1
      00188E 04                    4432 	.db #0x04	; 4
      00188F 02                    4433 	.db #0x02	; 2
      001890 08                    4434 	.db #0x08	; 8
      001891 10                    4435 	.db #0x10	; 16
                                   4436 ;ps_engine.c:522: static void undo_push(const u32 *snapshot) {
                                   4437 ;	---------------------------------
                                   4438 ; Function undo_push
                                   4439 ; ---------------------------------
      001892                       4440 _undo_push:
      001892 DD E5            [15] 4441 	push	ix
      001894 DD 21 00 00      [14] 4442 	ld	ix,#0
      001898 DD 39            [15] 4443 	add	ix,sp
      00189A F5               [11] 4444 	push	af
      00189B F5               [11] 4445 	push	af
      00189C 3B               [ 6] 4446 	dec	sp
      00189D 4D               [ 4] 4447 	ld	c, l
      00189E 44               [ 4] 4448 	ld	b, h
                                   4449 ;ps_engine.c:524: if (g_flags & FLG_NOUNDO) return;
      00189F 3Ar03r00         [13] 4450 	ld	a, (_g_flags+0)
      0018A2 CB 4F            [ 8] 4451 	bit	1, a
                                   4452 ;ps_engine.c:525: for (i = 0; i < g_ncells; i++) undo_buf[undo_head][i] = snapshot[i];
      0018A4 20 6E            [12] 4453 	jr	NZ, 00109$
      0018A6 DD 36 FF 00      [19] 4454 	ld	-1 (ix), #0x00
      0018AA                       4455 00107$:
      0018AA 21rCCr15         [10] 4456 	ld	hl, #_g_ncells
      0018AD DD 7E FF         [19] 4457 	ld	a, -1 (ix)
      0018B0 96               [ 7] 4458 	sub	a, (hl)
      0018B1 30 45            [12] 4459 	jr	NC, 00103$
      0018B3 3ArC9r15         [13] 4460 	ld	a, (_undo_head+0)
      0018B6 5F               [ 4] 4461 	ld	e, a
      0018B7 16 00            [ 7] 4462 	ld	d, #0x00
      0018B9 6B               [ 4] 4463 	ld	l, e
      0018BA 62               [ 4] 4464 	ld	h, d
      0018BB 29               [11] 4465 	add	hl, hl
      0018BC 19               [11] 4466 	add	hl, de
      0018BD 29               [11] 4467 	add	hl, hl
      0018BE 29               [11] 4468 	add	hl, hl
      0018BF 29               [11] 4469 	add	hl, hl
      0018C0 29               [11] 4470 	add	hl, hl
      0018C1 29               [11] 4471 	add	hl, hl
      0018C2 29               [11] 4472 	add	hl, hl
      0018C3 29               [11] 4473 	add	hl, hl
      0018C4 29               [11] 4474 	add	hl, hl
      0018C5 EB               [ 4] 4475 	ex	de, hl
      0018C6 21rC8r0C         [10] 4476 	ld	hl, #_undo_buf
      0018C9 19               [11] 4477 	add	hl, de
      0018CA EB               [ 4] 4478 	ex	de, hl
      0018CB DD 6E FF         [19] 4479 	ld	l, -1 (ix)
                                   4480 ;	spillPairReg hl
                                   4481 ;	spillPairReg hl
      0018CE 26 00            [ 7] 4482 	ld	h, #0x00
                                   4483 ;	spillPairReg hl
                                   4484 ;	spillPairReg hl
      0018D0 29               [11] 4485 	add	hl, hl
      0018D1 29               [11] 4486 	add	hl, hl
      0018D2 7B               [ 4] 4487 	ld	a, e
      0018D3 85               [ 4] 4488 	add	a, l
      0018D4 5F               [ 4] 4489 	ld	e, a
      0018D5 7A               [ 4] 4490 	ld	a, d
      0018D6 8C               [ 4] 4491 	adc	a, h
      0018D7 57               [ 4] 4492 	ld	d, a
      0018D8 09               [11] 4493 	add	hl, bc
      0018D9 D5               [11] 4494 	push	de
      0018DA C5               [11] 4495 	push	bc
      0018DB EB               [ 4] 4496 	ex	de, hl
      0018DC 21 04 00         [10] 4497 	ld	hl, #4
      0018DF 39               [11] 4498 	add	hl, sp
      0018E0 EB               [ 4] 4499 	ex	de, hl
      0018E1 01 04 00         [10] 4500 	ld	bc, #0x0004
      0018E4 ED B0            [21] 4501 	ldir
      0018E6 C1               [10] 4502 	pop	bc
      0018E7 D1               [10] 4503 	pop	de
      0018E8 C5               [11] 4504 	push	bc
      0018E9 21 02 00         [10] 4505 	ld	hl, #2
      0018EC 39               [11] 4506 	add	hl, sp
      0018ED 01 04 00         [10] 4507 	ld	bc, #0x0004
      0018F0 ED B0            [21] 4508 	ldir
      0018F2 C1               [10] 4509 	pop	bc
      0018F3 DD 34 FF         [23] 4510 	inc	-1 (ix)
      0018F6 18 B2            [12] 4511 	jr	00107$
      0018F8                       4512 00103$:
                                   4513 ;ps_engine.c:526: undo_head = (undo_head + 1) % UNDO_DEPTH;
      0018F8 3ArC9r15         [13] 4514 	ld	a, (_undo_head+0)
      0018FB 26 00            [ 7] 4515 	ld	h, #0x00
                                   4516 ;	spillPairReg hl
                                   4517 ;	spillPairReg hl
      0018FD 6F               [ 4] 4518 	ld	l, a
                                   4519 ;	spillPairReg hl
                                   4520 ;	spillPairReg hl
      0018FE 23               [ 6] 4521 	inc	hl
      0018FF 11 03 00         [10] 4522 	ld	de, #0x0003
      001902 CDr00r00         [17] 4523 	call	__modsint
      001905 21rC9r15         [10] 4524 	ld	hl, #_undo_head
      001908 73               [ 7] 4525 	ld	(hl), e
                                   4526 ;ps_engine.c:527: if (undo_count < UNDO_DEPTH) undo_count++;
      001909 3ArC8r15         [13] 4527 	ld	a, (_undo_count+0)
      00190C D6 03            [ 7] 4528 	sub	a, #0x03
      00190E 30 04            [12] 4529 	jr	NC, 00109$
      001910 21rC8r15         [10] 4530 	ld	hl, #_undo_count
      001913 34               [11] 4531 	inc	(hl)
      001914                       4532 00109$:
                                   4533 ;ps_engine.c:528: }
      001914 DD F9            [10] 4534 	ld	sp, ix
      001916 DD E1            [14] 4535 	pop	ix
      001918 C9               [10] 4536 	ret
                                   4537 ;ps_engine.c:529: static u8 undo_pop(void) {
                                   4538 ;	---------------------------------
                                   4539 ; Function undo_pop
                                   4540 ; ---------------------------------
      001919                       4541 _undo_pop:
      001919 DD E5            [15] 4542 	push	ix
      00191B DD 21 00 00      [14] 4543 	ld	ix,#0
      00191F DD 39            [15] 4544 	add	ix,sp
      001921 21 FB FF         [10] 4545 	ld	hl, #-5
      001924 39               [11] 4546 	add	hl, sp
      001925 F9               [ 6] 4547 	ld	sp, hl
                                   4548 ;ps_engine.c:531: if (!undo_count) return 0;
      001926 3ArC8r15         [13] 4549 	ld	a, (_undo_count+0)
      001929 B7               [ 4] 4550 	or	a,a
      00192A 28 77            [12] 4551 	jr	Z, 00107$
                                   4552 ;ps_engine.c:532: undo_head = (undo_head + UNDO_DEPTH - 1) % UNDO_DEPTH;
      00192C 3ArC9r15         [13] 4553 	ld	a, (_undo_head+0)
      00192F 26 00            [ 7] 4554 	ld	h, #0x00
                                   4555 ;	spillPairReg hl
                                   4556 ;	spillPairReg hl
      001931 6F               [ 4] 4557 	ld	l, a
                                   4558 ;	spillPairReg hl
                                   4559 ;	spillPairReg hl
      001932 23               [ 6] 4560 	inc	hl
      001933 23               [ 6] 4561 	inc	hl
      001934 11 03 00         [10] 4562 	ld	de, #0x0003
      001937 CDr00r00         [17] 4563 	call	__modsint
      00193A 21rC9r15         [10] 4564 	ld	hl, #_undo_head
      00193D 73               [ 7] 4565 	ld	(hl), e
                                   4566 ;ps_engine.c:533: undo_count--;
      00193E 21rC8r15         [10] 4567 	ld	hl, #_undo_count
      001941 35               [11] 4568 	dec	(hl)
                                   4569 ;ps_engine.c:534: for (i = 0; i < g_ncells; i++) { lev[i] = undo_buf[undo_head][i]; mov[i] = 0; }
      001942 DD 36 FF 00      [19] 4570 	ld	-1 (ix), #0x00
      001946                       4571 00105$:
      001946 21rCCr15         [10] 4572 	ld	hl, #_g_ncells
      001949 DD 7E FF         [19] 4573 	ld	a, -1 (ix)
      00194C 96               [ 7] 4574 	sub	a, (hl)
      00194D 30 52            [12] 4575 	jr	NC, 00103$
      00194F DD 6E FF         [19] 4576 	ld	l, -1 (ix)
                                   4577 ;	spillPairReg hl
                                   4578 ;	spillPairReg hl
      001952 26 00            [ 7] 4579 	ld	h, #0x00
                                   4580 ;	spillPairReg hl
                                   4581 ;	spillPairReg hl
      001954 29               [11] 4582 	add	hl, hl
      001955 29               [11] 4583 	add	hl, hl
      001956 4D               [ 4] 4584 	ld	c, l
      001957 44               [ 4] 4585 	ld	b, h
      001958 21rC8r00         [10] 4586 	ld	hl, #_lev
      00195B 09               [11] 4587 	add	hl, bc
      00195C EB               [ 4] 4588 	ex	de, hl
      00195D 3ArC9r15         [13] 4589 	ld	a, (_undo_head+0)
      001960 6F               [ 4] 4590 	ld	l, a
                                   4591 ;	spillPairReg hl
                                   4592 ;	spillPairReg hl
      001961 26 00            [ 7] 4593 	ld	h, #0x00
                                   4594 ;	spillPairReg hl
                                   4595 ;	spillPairReg hl
      001963 D5               [11] 4596 	push	de
      001964 5D               [ 4] 4597 	ld	e, l
      001965 54               [ 4] 4598 	ld	d, h
      001966 29               [11] 4599 	add	hl, hl
      001967 19               [11] 4600 	add	hl, de
      001968 29               [11] 4601 	add	hl, hl
      001969 29               [11] 4602 	add	hl, hl
      00196A 29               [11] 4603 	add	hl, hl
      00196B 29               [11] 4604 	add	hl, hl
      00196C 29               [11] 4605 	add	hl, hl
      00196D 29               [11] 4606 	add	hl, hl
      00196E 29               [11] 4607 	add	hl, hl
      00196F 29               [11] 4608 	add	hl, hl
      001970 11rC8r0C         [10] 4609 	ld	de, #_undo_buf
      001973 19               [11] 4610 	add	hl, de
      001974 D1               [10] 4611 	pop	de
      001975 09               [11] 4612 	add	hl, bc
      001976 D5               [11] 4613 	push	de
      001977 C5               [11] 4614 	push	bc
      001978 EB               [ 4] 4615 	ex	de, hl
      001979 21 04 00         [10] 4616 	ld	hl, #4
      00197C 39               [11] 4617 	add	hl, sp
      00197D EB               [ 4] 4618 	ex	de, hl
      00197E 01 04 00         [10] 4619 	ld	bc, #0x0004
      001981 ED B0            [21] 4620 	ldir
      001983 C1               [10] 4621 	pop	bc
      001984 D1               [10] 4622 	pop	de
      001985 C5               [11] 4623 	push	bc
      001986 21 02 00         [10] 4624 	ld	hl, #2
      001989 39               [11] 4625 	add	hl, sp
      00198A 01 04 00         [10] 4626 	ld	bc, #0x0004
      00198D ED B0            [21] 4627 	ldir
      00198F C1               [10] 4628 	pop	bc
      001990 21rC8r03         [10] 4629 	ld	hl, #_mov
      001993 09               [11] 4630 	add	hl, bc
      001994 AF               [ 4] 4631 	xor	a, a
      001995 77               [ 7] 4632 	ld	(hl), a
      001996 23               [ 6] 4633 	inc	hl
      001997 77               [ 7] 4634 	ld	(hl), a
      001998 23               [ 6] 4635 	inc	hl
      001999 77               [ 7] 4636 	ld	(hl), a
      00199A 23               [ 6] 4637 	inc	hl
      00199B 77               [ 7] 4638 	ld	(hl), a
      00199C DD 34 FF         [23] 4639 	inc	-1 (ix)
      00199F 18 A5            [12] 4640 	jr	00105$
      0019A1                       4641 00103$:
                                   4642 ;ps_engine.c:535: return 1;
      0019A1 3E 01            [ 7] 4643 	ld	a, #0x01
      0019A3                       4644 00107$:
                                   4645 ;ps_engine.c:536: }
      0019A3 DD F9            [10] 4646 	ld	sp, ix
      0019A5 DD E1            [14] 4647 	pop	ix
      0019A7 C9               [10] 4648 	ret
                                   4649 ;ps_engine.c:541: static u8 level_fetch(u8 idx) {
                                   4650 ;	---------------------------------
                                   4651 ; Function level_fetch
                                   4652 ; ---------------------------------
      0019A8                       4653 _level_fetch:
      0019A8 DD E5            [15] 4654 	push	ix
      0019AA DD 21 00 00      [14] 4655 	ld	ix,#0
      0019AE DD 39            [15] 4656 	add	ix,sp
      0019B0 21 FB FF         [10] 4657 	ld	hl, #-5
      0019B3 39               [11] 4658 	add	hl, sp
      0019B4 F9               [ 6] 4659 	ld	sp, hl
      0019B5 4F               [ 4] 4660 	ld	c, a
                                   4661 ;ps_engine.c:542: const u8 *ix = far_resolve(g_far_levels);
      0019B6 C5               [11] 4662 	push	bc
      0019B7 21r79r00         [10] 4663 	ld	hl, #_g_far_levels
      0019BA CDrA9r03         [17] 4664 	call	_far_resolve
      0019BD C1               [10] 4665 	pop	bc
                                   4666 ;ps_engine.c:543: const u8 *e = ix + 1 + ((u16)idx << 2);       /* u8 count, 4-byte entries */
      0019BE 13               [ 6] 4667 	inc	de
      0019BF 69               [ 4] 4668 	ld	l, c
                                   4669 ;	spillPairReg hl
                                   4670 ;	spillPairReg hl
      0019C0 26 00            [ 7] 4671 	ld	h, #0x00
                                   4672 ;	spillPairReg hl
                                   4673 ;	spillPairReg hl
      0019C2 29               [11] 4674 	add	hl, hl
      0019C3 29               [11] 4675 	add	hl, hl
      0019C4 19               [11] 4676 	add	hl, de
                                   4677 ;ps_engine.c:544: u8 type = e[0];
      0019C5 4E               [ 7] 4678 	ld	c, (hl)
                                   4679 ;ps_engine.c:545: const u8 *p = far_resolve(e + 1);
      0019C6 23               [ 6] 4680 	inc	hl
      0019C7 C5               [11] 4681 	push	bc
      0019C8 CDrA9r03         [17] 4682 	call	_far_resolve
      0019CB C1               [10] 4683 	pop	bc
                                   4684 ;ps_engine.c:546: if (type == 1) { msg_ptr = p; return 1; }
      0019CC 0D               [ 4] 4685 	dec	c
      0019CD 20 09            [12] 4686 	jr	NZ, 00102$
      0019CF ED 53r08r16      [20] 4687 	ld	(_msg_ptr), de
      0019D3 3E 01            [ 7] 4688 	ld	a, #0x01
      0019D5 C3r6Er1A         [10] 4689 	jp	00107$
      0019D8                       4690 00102$:
                                   4691 ;ps_engine.c:547: g_w = p[0]; g_h = p[1];
      0019D8 1A               [ 7] 4692 	ld	a, (de)
      0019D9 32rCAr15         [13] 4693 	ld	(_g_w+0), a
      0019DC 4B               [ 4] 4694 	ld	c, e
      0019DD 42               [ 4] 4695 	ld	b, d
      0019DE 03               [ 6] 4696 	inc	bc
      0019DF 0A               [ 7] 4697 	ld	a, (bc)
      0019E0 32rCBr15         [13] 4698 	ld	(_g_h+0), a
                                   4699 ;ps_engine.c:548: g_ncells = (u8)(g_w * g_h);
      0019E3 D5               [11] 4700 	push	de
      0019E4 3ArCBr15         [13] 4701 	ld	a, (#_g_h + 0)
      0019E7 5F               [ 4] 4702 	ld	e, a
      0019E8 3ArCAr15         [13] 4703 	ld	a, (#_g_w + 0)
      0019EB 67               [ 4] 4704 	ld	h, a
                                   4705 ;	spillPairReg hl
                                   4706 ;	spillPairReg hl
      0019EC 2E 00            [ 7] 4707 	ld	l, #0x00
      0019EE 55               [ 4] 4708 	ld	d, l
      0019EF 06 08            [ 7] 4709 	ld	b, #0x08
      0019F1                       4710 00127$:
      0019F1 29               [11] 4711 	add	hl, hl
      0019F2 30 01            [12] 4712 	jr	NC, 00128$
      0019F4 19               [11] 4713 	add	hl, de
      0019F5                       4714 00128$:
      0019F5 10 FA            [13] 4715 	djnz	00127$
      0019F7 D1               [10] 4716 	pop	de
      0019F8 7D               [ 4] 4717 	ld	a, l
      0019F9 32rCCr15         [13] 4718 	ld	(#_g_ncells), a
                                   4719 ;ps_engine.c:550: u8 i; const u8 *c = p + 2;
      0019FC 13               [ 6] 4720 	inc	de
      0019FD 13               [ 6] 4721 	inc	de
                                   4722 ;ps_engine.c:551: for (i = 0; i < g_ncells; i++, c += 4) {
      0019FE DD 36 FF 00      [19] 4723 	ld	-1 (ix), #0x00
      001A02                       4724 00105$:
      001A02 21rCCr15         [10] 4725 	ld	hl, #_g_ncells
      001A05 DD 7E FF         [19] 4726 	ld	a, -1 (ix)
      001A08 96               [ 7] 4727 	sub	a, (hl)
      001A09 30 58            [12] 4728 	jr	NC, 00103$
                                   4729 ;ps_engine.c:552: lev[i] = rd32(c);
      001A0B DD 6E FF         [19] 4730 	ld	l, -1 (ix)
                                   4731 ;	spillPairReg hl
                                   4732 ;	spillPairReg hl
      001A0E 26 00            [ 7] 4733 	ld	h, #0x00
                                   4734 ;	spillPairReg hl
                                   4735 ;	spillPairReg hl
      001A10 29               [11] 4736 	add	hl, hl
      001A11 29               [11] 4737 	add	hl, hl
      001A12 4D               [ 4] 4738 	ld	c, l
      001A13 44               [ 4] 4739 	ld	b, h
      001A14 21rC8r00         [10] 4740 	ld	hl, #_lev
      001A17 09               [11] 4741 	add	hl, bc
      001A18 E5               [11] 4742 	push	hl
      001A19 C5               [11] 4743 	push	bc
                                   4744 ;	spillPairReg hl
                                   4745 ;	spillPairReg hl
      001A1A EB               [ 4] 4746 	ex	de, hl
      001A1B E5               [11] 4747 	push	hl
                                   4748 ;	spillPairReg hl
                                   4749 ;	spillPairReg hl
      001A1C CDr17r03         [17] 4750 	call	_rd32
      001A1F DD 73 FB         [19] 4751 	ld	-5 (ix), e
      001A22 DD 72 FC         [19] 4752 	ld	-4 (ix), d
      001A25 DD 75 FD         [19] 4753 	ld	-3 (ix), l
      001A28 DD 74 FE         [19] 4754 	ld	-2 (ix), h
      001A2B D1               [10] 4755 	pop	de
      001A2C C1               [10] 4756 	pop	bc
      001A2D E1               [10] 4757 	pop	hl
      001A2E D5               [11] 4758 	push	de
      001A2F C5               [11] 4759 	push	bc
      001A30 EB               [ 4] 4760 	ex	de,hl
      001A31 21 04 00         [10] 4761 	ld	hl, #4
      001A34 39               [11] 4762 	add	hl, sp
      001A35 01 04 00         [10] 4763 	ld	bc, #0x0004
      001A38 ED B0            [21] 4764 	ldir
      001A3A C1               [10] 4765 	pop	bc
      001A3B D1               [10] 4766 	pop	de
                                   4767 ;ps_engine.c:553: chkpt[i] = lev[i];
      001A3C 21rC8r09         [10] 4768 	ld	hl, #_chkpt
      001A3F 09               [11] 4769 	add	hl, bc
      001A40 D5               [11] 4770 	push	de
      001A41 C5               [11] 4771 	push	bc
      001A42 EB               [ 4] 4772 	ex	de,hl
      001A43 21 04 00         [10] 4773 	ld	hl, #4
      001A46 39               [11] 4774 	add	hl, sp
      001A47 01 04 00         [10] 4775 	ld	bc, #0x0004
      001A4A ED B0            [21] 4776 	ldir
      001A4C C1               [10] 4777 	pop	bc
      001A4D D1               [10] 4778 	pop	de
                                   4779 ;ps_engine.c:554: mov[i] = 0;
      001A4E 21rC8r03         [10] 4780 	ld	hl, #_mov
      001A51 09               [11] 4781 	add	hl, bc
      001A52 AF               [ 4] 4782 	xor	a, a
      001A53 77               [ 7] 4783 	ld	(hl), a
      001A54 23               [ 6] 4784 	inc	hl
      001A55 77               [ 7] 4785 	ld	(hl), a
      001A56 23               [ 6] 4786 	inc	hl
      001A57 77               [ 7] 4787 	ld	(hl), a
      001A58 23               [ 6] 4788 	inc	hl
      001A59 77               [ 7] 4789 	ld	(hl), a
                                   4790 ;ps_engine.c:551: for (i = 0; i < g_ncells; i++, c += 4) {
      001A5A DD 34 FF         [23] 4791 	inc	-1 (ix)
      001A5D 13               [ 6] 4792 	inc	de
      001A5E 13               [ 6] 4793 	inc	de
      001A5F 13               [ 6] 4794 	inc	de
      001A60 13               [ 6] 4795 	inc	de
      001A61 18 9F            [12] 4796 	jr	00105$
      001A63                       4797 00103$:
                                   4798 ;ps_engine.c:557: undo_count = 0; undo_head = 0;
      001A63 21rC8r15         [10] 4799 	ld	hl, #_undo_count
      001A66 36 00            [10] 4800 	ld	(hl), #0x00
      001A68 21rC9r15         [10] 4801 	ld	hl, #_undo_head
      001A6B 36 00            [10] 4802 	ld	(hl), #0x00
                                   4803 ;ps_engine.c:558: return 0;
      001A6D AF               [ 4] 4804 	xor	a, a
      001A6E                       4805 00107$:
                                   4806 ;ps_engine.c:559: }
      001A6E DD F9            [10] 4807 	ld	sp, ix
      001A70 DD E1            [14] 4808 	pop	ix
      001A72 C9               [10] 4809 	ret
                                   4810 ;ps_engine.c:574: static void compose(u32 key) {
                                   4811 ;	---------------------------------
                                   4812 ; Function compose
                                   4813 ; ---------------------------------
      001A73                       4814 _compose:
      001A73 DD E5            [15] 4815 	push	ix
      001A75 DD 21 00 00      [14] 4816 	ld	ix,#0
      001A79 DD 39            [15] 4817 	add	ix,sp
      001A7B FD 21 F2 FF      [14] 4818 	ld	iy, #-14
      001A7F FD 39            [15] 4819 	add	iy, sp
      001A81 FD F9            [10] 4820 	ld	sp, iy
      001A83 DD 73 F6         [19] 4821 	ld	-10 (ix), e
      001A86 DD 72 F7         [19] 4822 	ld	-9 (ix), d
      001A89 DD 75 F8         [19] 4823 	ld	-8 (ix), l
      001A8C DD 74 F9         [19] 4824 	ld	-7 (ix), h
                                   4825 ;ps_engine.c:575: const u8 *tiles = far_resolve(g_far_tiles);
      001A8F 21r76r00         [10] 4826 	ld	hl, #_g_far_tiles
      001A92 CDrA9r03         [17] 4827 	call	_far_resolve
                                   4828 ;ps_engine.c:577: for (row = 0; row < 128; row++) compose_buf[row] = 0;
      001A95 0E 00            [ 7] 4829 	ld	c, #0x00
      001A97                       4830 00108$:
      001A97 21r29r18         [10] 4831 	ld	hl, #_compose_buf
      001A9A 06 00            [ 7] 4832 	ld	b, #0x00
      001A9C 09               [11] 4833 	add	hl, bc
      001A9D 36 00            [10] 4834 	ld	(hl), #0x00
      001A9F 0C               [ 4] 4835 	inc	c
      001AA0 79               [ 4] 4836 	ld	a, c
      001AA1 D6 80            [ 7] 4837 	sub	a, #0x80
      001AA3 38 F2            [12] 4838 	jr	C, 00108$
                                   4839 ;ps_engine.c:578: for (o = 0; o < g_nobj; o++) {
      001AA5 0E 00            [ 7] 4840 	ld	c, #0x00
      001AA7                       4841 00116$:
      001AA7 21r00r00         [10] 4842 	ld	hl, #_g_nobj
      001AAA 79               [ 4] 4843 	ld	a, c
      001AAB 96               [ 7] 4844 	sub	a, (hl)
      001AAC D2r44r1C         [10] 4845 	jp	NC, 00117$
                                   4846 ;ps_engine.c:579: u8 obj = g_drawOrder[o];
      001AAF 21r46r00         [10] 4847 	ld	hl, #_g_drawOrder
      001AB2 06 00            [ 7] 4848 	ld	b, #0x00
      001AB4 09               [11] 4849 	add	hl, bc
      001AB5 7E               [ 7] 4850 	ld	a, (hl)
                                   4851 ;ps_engine.c:582: if (!(key & ((u32)1 << obj))) continue;
      001AB6 DD 77 FB         [19] 4852 	ld	-5 (ix), a
      001AB9 47               [ 4] 4853 	ld	b, a
      001ABA DD 36 F2 01      [19] 4854 	ld	-14 (ix), #0x01
      001ABE AF               [ 4] 4855 	xor	a, a
      001ABF DD 77 F3         [19] 4856 	ld	-13 (ix), a
      001AC2 DD 77 F4         [19] 4857 	ld	-12 (ix), a
      001AC5 DD 77 F5         [19] 4858 	ld	-11 (ix), a
      001AC8 04               [ 4] 4859 	inc	b
      001AC9 18 10            [12] 4860 	jr	00164$
      001ACB                       4861 00163$:
      001ACB DD CB F2 26      [23] 4862 	sla	-14 (ix)
      001ACF DD CB F3 16      [23] 4863 	rl	-13 (ix)
      001AD3 DD CB F4 16      [23] 4864 	rl	-12 (ix)
      001AD7 DD CB F5 16      [23] 4865 	rl	-11 (ix)
      001ADB                       4866 00164$:
      001ADB 10 EE            [13] 4867 	djnz	00163$
      001ADD DD 7E F6         [19] 4868 	ld	a, -10 (ix)
      001AE0 DD A6 F2         [19] 4869 	and	a, -14 (ix)
      001AE3 DD 77 FC         [19] 4870 	ld	-4 (ix), a
      001AE6 DD 7E F7         [19] 4871 	ld	a, -9 (ix)
      001AE9 DD A6 F3         [19] 4872 	and	a, -13 (ix)
      001AEC DD 77 FD         [19] 4873 	ld	-3 (ix), a
      001AEF DD 7E F8         [19] 4874 	ld	a, -8 (ix)
      001AF2 DD A6 F4         [19] 4875 	and	a, -12 (ix)
      001AF5 DD 77 FE         [19] 4876 	ld	-2 (ix), a
      001AF8 DD 7E F9         [19] 4877 	ld	a, -7 (ix)
      001AFB DD A6 F5         [19] 4878 	and	a, -11 (ix)
      001AFE DD 77 FF         [19] 4879 	ld	-1 (ix), a
      001B01 DD B6 FE         [19] 4880 	or	a, -2 (ix)
      001B04 DD B6 FD         [19] 4881 	or	a, -3 (ix)
      001B07 DD B6 FC         [19] 4882 	or	a, -4 (ix)
      001B0A CAr40r1C         [10] 4883 	jp	Z, 00106$
                                   4884 ;ps_engine.c:583: src = tiles + ((u16)obj * 160);
      001B0D DD 6E FB         [19] 4885 	ld	l, -5 (ix)
                                   4886 ;	spillPairReg hl
                                   4887 ;	spillPairReg hl
      001B10 26 00            [ 7] 4888 	ld	h, #0x00
                                   4889 ;	spillPairReg hl
                                   4890 ;	spillPairReg hl
      001B12 D5               [11] 4891 	push	de
      001B13 5D               [ 4] 4892 	ld	e, l
      001B14 54               [ 4] 4893 	ld	d, h
      001B15 29               [11] 4894 	add	hl, hl
      001B16 29               [11] 4895 	add	hl, hl
      001B17 19               [11] 4896 	add	hl, de
      001B18 29               [11] 4897 	add	hl, hl
      001B19 29               [11] 4898 	add	hl, hl
      001B1A 29               [11] 4899 	add	hl, hl
      001B1B 29               [11] 4900 	add	hl, hl
      001B1C 29               [11] 4901 	add	hl, hl
      001B1D D1               [10] 4902 	pop	de
      001B1E 19               [11] 4903 	add	hl, de
                                   4904 ;ps_engine.c:584: dst = compose_buf;
      001B1F DD 36 F4r29      [19] 4905 	ld	-12 (ix), #<(_compose_buf)
      001B23 DD 36 F5s18      [19] 4906 	ld	-11 (ix), #>(_compose_buf)
                                   4907 ;ps_engine.c:585: for (st = 0; st < 4; st++)
      001B27 DD 36 FA 00      [19] 4908 	ld	-6 (ix), #0x00
                                   4909 ;ps_engine.c:586: for (row = 0; row < 8; row++) {
      001B2B                       4910 00123$:
      001B2B DD 75 FB         [19] 4911 	ld	-5 (ix), l
      001B2E DD 74 FC         [19] 4912 	ld	-4 (ix), h
      001B31 DD 7E F4         [19] 4913 	ld	a, -12 (ix)
      001B34 DD 77 FD         [19] 4914 	ld	-3 (ix), a
      001B37 DD 7E F5         [19] 4915 	ld	a, -11 (ix)
      001B3A DD 77 FE         [19] 4916 	ld	-2 (ix), a
      001B3D DD 36 FF 08      [19] 4917 	ld	-1 (ix), #0x08
      001B41                       4918 00112$:
                                   4919 ;ps_engine.c:587: u8 m = src[0], nm = (u8)~m;
      001B41 DD 6E FB         [19] 4920 	ld	l, -5 (ix)
      001B44 DD 66 FC         [19] 4921 	ld	h, -4 (ix)
      001B47 46               [ 7] 4922 	ld	b, (hl)
      001B48 78               [ 4] 4923 	ld	a, b
      001B49 2F               [ 4] 4924 	cpl
      001B4A DD 77 F3         [19] 4925 	ld	-13 (ix), a
                                   4926 ;ps_engine.c:588: dst[0] = (dst[0] & nm) | (src[1] & m);
      001B4D DD 6E FD         [19] 4927 	ld	l, -3 (ix)
      001B50 DD 66 FE         [19] 4928 	ld	h, -2 (ix)
      001B53 7E               [ 7] 4929 	ld	a, (hl)
      001B54 DD A6 F3         [19] 4930 	and	a, -13 (ix)
      001B57 DD 6E FB         [19] 4931 	ld	l, -5 (ix)
                                   4932 ;	spillPairReg hl
                                   4933 ;	spillPairReg hl
      001B5A DD 66 FC         [19] 4934 	ld	h, -4 (ix)
                                   4935 ;	spillPairReg hl
                                   4936 ;	spillPairReg hl
      001B5D 23               [ 6] 4937 	inc	hl
      001B5E 6E               [ 7] 4938 	ld	l, (hl)
                                   4939 ;	spillPairReg hl
      001B5F F5               [11] 4940 	push	af
      001B60 7D               [ 4] 4941 	ld	a, l
      001B61 A0               [ 4] 4942 	and	a, b
      001B62 6F               [ 4] 4943 	ld	l, a
                                   4944 ;	spillPairReg hl
                                   4945 ;	spillPairReg hl
      001B63 F1               [10] 4946 	pop	af
      001B64 B5               [ 4] 4947 	or	a, l
      001B65 DD 6E FD         [19] 4948 	ld	l, -3 (ix)
      001B68 DD 66 FE         [19] 4949 	ld	h, -2 (ix)
      001B6B 77               [ 7] 4950 	ld	(hl), a
                                   4951 ;ps_engine.c:589: dst[1] = (dst[1] & nm) | (src[2] & m);
      001B6C DD 7E FD         [19] 4952 	ld	a, -3 (ix)
      001B6F C6 01            [ 7] 4953 	add	a, #0x01
      001B71 DD 77 F4         [19] 4954 	ld	-12 (ix), a
      001B74 DD 7E FE         [19] 4955 	ld	a, -2 (ix)
      001B77 CE 00            [ 7] 4956 	adc	a, #0x00
      001B79 DD 77 F5         [19] 4957 	ld	-11 (ix), a
      001B7C DD 6E F4         [19] 4958 	ld	l, -12 (ix)
      001B7F DD 66 F5         [19] 4959 	ld	h, -11 (ix)
      001B82 7E               [ 7] 4960 	ld	a, (hl)
      001B83 DD A6 F3         [19] 4961 	and	a, -13 (ix)
      001B86 DD 6E FB         [19] 4962 	ld	l, -5 (ix)
                                   4963 ;	spillPairReg hl
                                   4964 ;	spillPairReg hl
      001B89 DD 66 FC         [19] 4965 	ld	h, -4 (ix)
                                   4966 ;	spillPairReg hl
                                   4967 ;	spillPairReg hl
      001B8C 23               [ 6] 4968 	inc	hl
      001B8D 23               [ 6] 4969 	inc	hl
      001B8E 6E               [ 7] 4970 	ld	l, (hl)
                                   4971 ;	spillPairReg hl
      001B8F F5               [11] 4972 	push	af
      001B90 7D               [ 4] 4973 	ld	a, l
      001B91 A0               [ 4] 4974 	and	a, b
      001B92 6F               [ 4] 4975 	ld	l, a
                                   4976 ;	spillPairReg hl
                                   4977 ;	spillPairReg hl
      001B93 F1               [10] 4978 	pop	af
      001B94 B5               [ 4] 4979 	or	a, l
      001B95 DD 6E F4         [19] 4980 	ld	l, -12 (ix)
      001B98 DD 66 F5         [19] 4981 	ld	h, -11 (ix)
      001B9B 77               [ 7] 4982 	ld	(hl), a
                                   4983 ;ps_engine.c:590: dst[2] = (dst[2] & nm) | (src[3] & m);
      001B9C DD 7E FD         [19] 4984 	ld	a, -3 (ix)
      001B9F C6 02            [ 7] 4985 	add	a, #0x02
      001BA1 DD 77 F4         [19] 4986 	ld	-12 (ix), a
      001BA4 DD 7E FE         [19] 4987 	ld	a, -2 (ix)
      001BA7 CE 00            [ 7] 4988 	adc	a, #0x00
      001BA9 DD 77 F5         [19] 4989 	ld	-11 (ix), a
      001BAC DD 6E F4         [19] 4990 	ld	l, -12 (ix)
      001BAF DD 66 F5         [19] 4991 	ld	h, -11 (ix)
      001BB2 7E               [ 7] 4992 	ld	a, (hl)
      001BB3 DD A6 F3         [19] 4993 	and	a, -13 (ix)
      001BB6 DD 6E FB         [19] 4994 	ld	l, -5 (ix)
                                   4995 ;	spillPairReg hl
                                   4996 ;	spillPairReg hl
      001BB9 DD 66 FC         [19] 4997 	ld	h, -4 (ix)
                                   4998 ;	spillPairReg hl
                                   4999 ;	spillPairReg hl
      001BBC 23               [ 6] 5000 	inc	hl
      001BBD 23               [ 6] 5001 	inc	hl
      001BBE 23               [ 6] 5002 	inc	hl
      001BBF 6E               [ 7] 5003 	ld	l, (hl)
                                   5004 ;	spillPairReg hl
      001BC0 F5               [11] 5005 	push	af
      001BC1 7D               [ 4] 5006 	ld	a, l
      001BC2 A0               [ 4] 5007 	and	a, b
      001BC3 6F               [ 4] 5008 	ld	l, a
                                   5009 ;	spillPairReg hl
                                   5010 ;	spillPairReg hl
      001BC4 F1               [10] 5011 	pop	af
      001BC5 B5               [ 4] 5012 	or	a, l
      001BC6 DD 6E F4         [19] 5013 	ld	l, -12 (ix)
      001BC9 DD 66 F5         [19] 5014 	ld	h, -11 (ix)
      001BCC 77               [ 7] 5015 	ld	(hl), a
                                   5016 ;ps_engine.c:591: dst[3] = (dst[3] & nm) | (src[4] & m);
      001BCD DD 7E FD         [19] 5017 	ld	a, -3 (ix)
      001BD0 C6 03            [ 7] 5018 	add	a, #0x03
      001BD2 DD 77 F4         [19] 5019 	ld	-12 (ix), a
      001BD5 DD 7E FE         [19] 5020 	ld	a, -2 (ix)
      001BD8 CE 00            [ 7] 5021 	adc	a, #0x00
      001BDA DD 77 F5         [19] 5022 	ld	-11 (ix), a
      001BDD DD 6E F4         [19] 5023 	ld	l, -12 (ix)
      001BE0 DD 66 F5         [19] 5024 	ld	h, -11 (ix)
      001BE3 7E               [ 7] 5025 	ld	a, (hl)
      001BE4 DD A6 F3         [19] 5026 	and	a, -13 (ix)
      001BE7 DD 6E FB         [19] 5027 	ld	l, -5 (ix)
                                   5028 ;	spillPairReg hl
                                   5029 ;	spillPairReg hl
      001BEA DD 66 FC         [19] 5030 	ld	h, -4 (ix)
                                   5031 ;	spillPairReg hl
                                   5032 ;	spillPairReg hl
      001BED 23               [ 6] 5033 	inc	hl
      001BEE 23               [ 6] 5034 	inc	hl
      001BEF 23               [ 6] 5035 	inc	hl
      001BF0 23               [ 6] 5036 	inc	hl
      001BF1 6E               [ 7] 5037 	ld	l, (hl)
                                   5038 ;	spillPairReg hl
      001BF2 F5               [11] 5039 	push	af
      001BF3 7D               [ 4] 5040 	ld	a, l
      001BF4 A0               [ 4] 5041 	and	a, b
      001BF5 6F               [ 4] 5042 	ld	l, a
                                   5043 ;	spillPairReg hl
                                   5044 ;	spillPairReg hl
      001BF6 F1               [10] 5045 	pop	af
      001BF7 B5               [ 4] 5046 	or	a, l
      001BF8 DD 6E F4         [19] 5047 	ld	l, -12 (ix)
      001BFB DD 66 F5         [19] 5048 	ld	h, -11 (ix)
      001BFE 77               [ 7] 5049 	ld	(hl), a
                                   5050 ;ps_engine.c:592: src += 5; dst += 4;
      001BFF DD 7E FB         [19] 5051 	ld	a, -5 (ix)
      001C02 C6 05            [ 7] 5052 	add	a, #0x05
      001C04 DD 77 FB         [19] 5053 	ld	-5 (ix), a
      001C07 30 03            [12] 5054 	jr	NC, 00165$
      001C09 DD 34 FC         [23] 5055 	inc	-4 (ix)
      001C0C                       5056 00165$:
      001C0C DD 7E FD         [19] 5057 	ld	a, -3 (ix)
      001C0F C6 04            [ 7] 5058 	add	a, #0x04
      001C11 DD 77 FD         [19] 5059 	ld	-3 (ix), a
      001C14 30 03            [12] 5060 	jr	NC, 00166$
      001C16 DD 34 FE         [23] 5061 	inc	-2 (ix)
      001C19                       5062 00166$:
      001C19 DD 35 FF         [23] 5063 	dec	-1 (ix)
                                   5064 ;ps_engine.c:586: for (row = 0; row < 8; row++) {
      001C1C DD 7E FF         [19] 5065 	ld	a, -1 (ix)
      001C1F B7               [ 4] 5066 	or	a, a
      001C20 C2r41r1B         [10] 5067 	jp	NZ, 00112$
                                   5068 ;ps_engine.c:585: for (st = 0; st < 4; st++)
      001C23 DD 6E FB         [19] 5069 	ld	l, -5 (ix)
                                   5070 ;	spillPairReg hl
                                   5071 ;	spillPairReg hl
      001C26 DD 66 FC         [19] 5072 	ld	h, -4 (ix)
                                   5073 ;	spillPairReg hl
                                   5074 ;	spillPairReg hl
      001C29 DD 7E FD         [19] 5075 	ld	a, -3 (ix)
      001C2C DD 77 F4         [19] 5076 	ld	-12 (ix), a
      001C2F DD 7E FE         [19] 5077 	ld	a, -2 (ix)
      001C32 DD 77 F5         [19] 5078 	ld	-11 (ix), a
      001C35 DD 34 FA         [23] 5079 	inc	-6 (ix)
      001C38 DD 7E FA         [19] 5080 	ld	a, -6 (ix)
      001C3B D6 04            [ 7] 5081 	sub	a, #0x04
      001C3D DAr2Br1B         [10] 5082 	jp	C, 00123$
      001C40                       5083 00106$:
                                   5084 ;ps_engine.c:578: for (o = 0; o < g_nobj; o++) {
      001C40 0C               [ 4] 5085 	inc	c
      001C41 C3rA7r1A         [10] 5086 	jp	00116$
      001C44                       5087 00117$:
                                   5088 ;ps_engine.c:595: }
      001C44 DD F9            [10] 5089 	ld	sp, ix
      001C46 DD E1            [14] 5090 	pop	ix
      001C48 C9               [10] 5091 	ret
                                   5092 ;ps_engine.c:597: static u8 combo_get(u32 key) {          /* returns combo idx or 0xFE          */
                                   5093 ;	---------------------------------
                                   5094 ; Function combo_get
                                   5095 ; ---------------------------------
      001C49                       5096 _combo_get:
      001C49 DD E5            [15] 5097 	push	ix
      001C4B DD 21 00 00      [14] 5098 	ld	ix,#0
      001C4F DD 39            [15] 5099 	add	ix,sp
      001C51 FD 21 F3 FF      [14] 5100 	ld	iy, #-13
      001C55 FD 39            [15] 5101 	add	iy, sp
      001C57 FD F9            [10] 5102 	ld	sp, iy
      001C59 DD 73 FB         [19] 5103 	ld	-5 (ix), e
      001C5C DD 72 FC         [19] 5104 	ld	-4 (ix), d
      001C5F DD 75 FD         [19] 5105 	ld	-3 (ix), l
      001C62 DD 74 FE         [19] 5106 	ld	-2 (ix), h
                                   5107 ;ps_engine.c:599: for (i = 0; i < combo_count; i++)
      001C65 DD 36 FA 00      [19] 5108 	ld	-6 (ix), #0x00
      001C69 DD 36 FF 00      [19] 5109 	ld	-1 (ix), #0x00
      001C6D                       5110 00112$:
      001C6D 21r66r17         [10] 5111 	ld	hl, #_combo_count
      001C70 DD 7E FF         [19] 5112 	ld	a, -1 (ix)
      001C73 96               [ 7] 5113 	sub	a, (hl)
      001C74 30 3A            [12] 5114 	jr	NC, 00103$
                                   5115 ;ps_engine.c:600: if (combo_key[i] == key) return i;
      001C76 DD 6E FF         [19] 5116 	ld	l, -1 (ix)
                                   5117 ;	spillPairReg hl
                                   5118 ;	spillPairReg hl
      001C79 26 00            [ 7] 5119 	ld	h, #0x00
                                   5120 ;	spillPairReg hl
                                   5121 ;	spillPairReg hl
      001C7B 29               [11] 5122 	add	hl, hl
      001C7C 29               [11] 5123 	add	hl, hl
      001C7D 11r0Ar16         [10] 5124 	ld	de, #_combo_key
      001C80 19               [11] 5125 	add	hl, de
      001C81 4E               [ 7] 5126 	ld	c, (hl)
      001C82 23               [ 6] 5127 	inc	hl
      001C83 46               [ 7] 5128 	ld	b, (hl)
      001C84 23               [ 6] 5129 	inc	hl
      001C85 5E               [ 7] 5130 	ld	e, (hl)
      001C86 23               [ 6] 5131 	inc	hl
      001C87 56               [ 7] 5132 	ld	d, (hl)
      001C88 DD 7E FB         [19] 5133 	ld	a, -5 (ix)
      001C8B 91               [ 4] 5134 	sub	a, c
      001C8C 20 17            [12] 5135 	jr	NZ, 00113$
      001C8E DD 7E FC         [19] 5136 	ld	a, -4 (ix)
      001C91 90               [ 4] 5137 	sub	a, b
      001C92 20 11            [12] 5138 	jr	NZ, 00113$
      001C94 DD 6E FD         [19] 5139 	ld	l, -3 (ix)
      001C97 DD 66 FE         [19] 5140 	ld	h, -2 (ix)
      001C9A BF               [ 4] 5141 	cp	a, a
      001C9B ED 52            [15] 5142 	sbc	hl, de
      001C9D 20 06            [12] 5143 	jr	NZ, 00113$
      001C9F DD 7E FA         [19] 5144 	ld	a, -6 (ix)
      001CA2 C3rB5r1D         [10] 5145 	jp	00117$
      001CA5                       5146 00113$:
                                   5147 ;ps_engine.c:599: for (i = 0; i < combo_count; i++)
      001CA5 DD 34 FF         [23] 5148 	inc	-1 (ix)
      001CA8 DD 7E FF         [19] 5149 	ld	a, -1 (ix)
      001CAB DD 77 FA         [19] 5150 	ld	-6 (ix), a
      001CAE 18 BD            [12] 5151 	jr	00112$
      001CB0                       5152 00103$:
                                   5153 ;ps_engine.c:601: if (combo_count >= MAX_COMBOS) {
      001CB0 3Ar66r17         [13] 5154 	ld	a, (_combo_count+0)
      001CB3 D6 57            [ 7] 5155 	sub	a, #0x57
      001CB5 DAr6Fr1D         [10] 5156 	jp	C, 00110$
                                   5157 ;ps_engine.c:604: for (o = (s8)g_nobj - 1; o >= 0; o--) {
      001CB8 3Ar00r00         [13] 5158 	ld	a, (_g_nobj+0)
      001CBB DD 77 FF         [19] 5159 	ld	-1 (ix), a
      001CBE DD 35 FF         [23] 5160 	dec	-1 (ix)
      001CC1                       5161 00115$:
      001CC1 DD CB FF 7E      [20] 5162 	bit	7, -1 (ix)
      001CC5 C2r6Br1D         [10] 5163 	jp	NZ, 00108$
                                   5164 ;ps_engine.c:605: u32 single = (u32)1 << g_drawOrder[(u8)o];
      001CC8 DD 7E FF         [19] 5165 	ld	a, -1 (ix)
      001CCB C6r46            [ 7] 5166 	add	a, #<(_g_drawOrder)
      001CCD DD 77 F9         [19] 5167 	ld	-7 (ix), a
      001CD0 3E 00            [ 7] 5168 	ld	a, #0x00
      001CD2 CEs00            [ 7] 5169 	adc	a, #>(_g_drawOrder)
      001CD4 DD 77 FA         [19] 5170 	ld	-6 (ix), a
      001CD7 DD 6E F9         [19] 5171 	ld	l, -7 (ix)
      001CDA DD 66 FA         [19] 5172 	ld	h, -6 (ix)
      001CDD 7E               [ 7] 5173 	ld	a, (hl)
      001CDE DD 77 FA         [19] 5174 	ld	-6 (ix), a
      001CE1 47               [ 4] 5175 	ld	b, a
      001CE2 DD 36 F3 01      [19] 5176 	ld	-13 (ix), #0x01
      001CE6 AF               [ 4] 5177 	xor	a, a
      001CE7 DD 77 F4         [19] 5178 	ld	-12 (ix), a
      001CEA DD 77 F5         [19] 5179 	ld	-11 (ix), a
      001CED DD 77 F6         [19] 5180 	ld	-10 (ix), a
      001CF0 04               [ 4] 5181 	inc	b
      001CF1 18 10            [12] 5182 	jr	00162$
      001CF3                       5183 00161$:
      001CF3 DD CB F3 26      [23] 5184 	sla	-13 (ix)
      001CF7 DD CB F4 16      [23] 5185 	rl	-12 (ix)
      001CFB DD CB F5 16      [23] 5186 	rl	-11 (ix)
      001CFF DD CB F6 16      [23] 5187 	rl	-10 (ix)
      001D03                       5188 00162$:
      001D03 10 EE            [13] 5189 	djnz	00161$
                                   5190 ;ps_engine.c:606: if (key & single) {
      001D05 DD 7E FB         [19] 5191 	ld	a, -5 (ix)
      001D08 DD A6 F3         [19] 5192 	and	a, -13 (ix)
      001D0B DD 77 F7         [19] 5193 	ld	-9 (ix), a
      001D0E DD 7E FC         [19] 5194 	ld	a, -4 (ix)
      001D11 DD A6 F4         [19] 5195 	and	a, -12 (ix)
      001D14 DD 77 F8         [19] 5196 	ld	-8 (ix), a
      001D17 DD 7E FD         [19] 5197 	ld	a, -3 (ix)
      001D1A DD A6 F5         [19] 5198 	and	a, -11 (ix)
      001D1D DD 77 F9         [19] 5199 	ld	-7 (ix), a
      001D20 DD 7E FE         [19] 5200 	ld	a, -2 (ix)
      001D23 DD A6 F6         [19] 5201 	and	a, -10 (ix)
      001D26 DD 77 FA         [19] 5202 	ld	-6 (ix), a
      001D29 DD B6 F9         [19] 5203 	or	a, -7 (ix)
      001D2C DD B6 F8         [19] 5204 	or	a, -8 (ix)
      001D2F DD B6 F7         [19] 5205 	or	a, -9 (ix)
      001D32 28 31            [12] 5206 	jr	Z, 00116$
                                   5207 ;ps_engine.c:607: if (key == single) return 0xFE;   /* even singles overflow    */
      001D34 DD 7E FB         [19] 5208 	ld	a, -5 (ix)
      001D37 DD 96 F3         [19] 5209 	sub	a, -13 (ix)
      001D3A 20 1C            [12] 5210 	jr	NZ, 00105$
      001D3C DD 7E FC         [19] 5211 	ld	a, -4 (ix)
      001D3F DD 96 F4         [19] 5212 	sub	a, -12 (ix)
      001D42 20 14            [12] 5213 	jr	NZ, 00105$
      001D44 DD 7E FD         [19] 5214 	ld	a, -3 (ix)
      001D47 DD 96 F5         [19] 5215 	sub	a, -11 (ix)
      001D4A 20 0C            [12] 5216 	jr	NZ, 00105$
      001D4C DD 7E FE         [19] 5217 	ld	a, -2 (ix)
      001D4F DD 96 F6         [19] 5218 	sub	a, -10 (ix)
      001D52 20 04            [12] 5219 	jr	NZ, 00105$
      001D54 3E FE            [ 7] 5220 	ld	a, #0xfe
      001D56 18 5D            [12] 5221 	jr	00117$
      001D58                       5222 00105$:
                                   5223 ;ps_engine.c:608: return combo_get(single);
      001D58 D1               [10] 5224 	pop	de
      001D59 D5               [11] 5225 	push	de
      001D5A DD 6E F5         [19] 5226 	ld	l, -11 (ix)
                                   5227 ;	spillPairReg hl
                                   5228 ;	spillPairReg hl
      001D5D DD 66 F6         [19] 5229 	ld	h, -10 (ix)
                                   5230 ;	spillPairReg hl
                                   5231 ;	spillPairReg hl
      001D60 CDr49r1C         [17] 5232 	call	_combo_get
      001D63 18 50            [12] 5233 	jr	00117$
      001D65                       5234 00116$:
                                   5235 ;ps_engine.c:604: for (o = (s8)g_nobj - 1; o >= 0; o--) {
      001D65 DD 35 FF         [23] 5236 	dec	-1 (ix)
      001D68 C3rC1r1C         [10] 5237 	jp	00115$
      001D6B                       5238 00108$:
                                   5239 ;ps_engine.c:611: return 0xFE;
      001D6B 3E FE            [ 7] 5240 	ld	a, #0xfe
      001D6D 18 46            [12] 5241 	jr	00117$
      001D6F                       5242 00110$:
                                   5243 ;ps_engine.c:613: compose(key);
      001D6F DD 5E FB         [19] 5244 	ld	e, -5 (ix)
      001D72 DD 56 FC         [19] 5245 	ld	d, -4 (ix)
      001D75 DD 6E FD         [19] 5246 	ld	l, -3 (ix)
                                   5247 ;	spillPairReg hl
                                   5248 ;	spillPairReg hl
      001D78 DD 66 FE         [19] 5249 	ld	h, -2 (ix)
                                   5250 ;	spillPairReg hl
                                   5251 ;	spillPairReg hl
      001D7B CDr73r1A         [17] 5252 	call	_compose
                                   5253 ;ps_engine.c:614: SMS_loadTiles(compose_buf, COMBO_BASE + ((u16)combo_count << 2), 128);
      001D7E 11r29r18         [10] 5254 	ld	de, #_compose_buf+0
      001D81 3Ar66r17         [13] 5255 	ld	a, (_combo_count+0)
      001D84 6F               [ 4] 5256 	ld	l, a
                                   5257 ;	spillPairReg hl
                                   5258 ;	spillPairReg hl
      001D85 26 00            [ 7] 5259 	ld	h, #0x00
                                   5260 ;	spillPairReg hl
                                   5261 ;	spillPairReg hl
      001D87 29               [11] 5262 	add	hl, hl
      001D88 29               [11] 5263 	add	hl, hl
      001D89 23               [ 6] 5264 	inc	hl
      001D8A 29               [11] 5265 	add	hl, hl
      001D8B 29               [11] 5266 	add	hl, hl
      001D8C 29               [11] 5267 	add	hl, hl
      001D8D 29               [11] 5268 	add	hl, hl
      001D8E 29               [11] 5269 	add	hl, hl
      001D8F 01 80 00         [10] 5270 	ld	bc, #0x0080
      001D92 C5               [11] 5271 	push	bc
      001D93 CDr00r00         [17] 5272 	call	_SMS_VRAMmemcpy
                                   5273 ;ps_engine.c:615: combo_key[combo_count] = key;
      001D96 3Ar66r17         [13] 5274 	ld	a, (_combo_count+0)
      001D99 26 00            [ 7] 5275 	ld	h, #0x00
                                   5276 ;	spillPairReg hl
                                   5277 ;	spillPairReg hl
      001D9B 6F               [ 4] 5278 	ld	l, a
      001D9C 29               [11] 5279 	add	hl, hl
      001D9D 29               [11] 5280 	add	hl, hl
      001D9E 11r0Ar16         [10] 5281 	ld	de, #_combo_key
      001DA1 19               [11] 5282 	add	hl, de
      001DA2 EB               [ 4] 5283 	ex	de,hl
      001DA3 21 08 00         [10] 5284 	ld	hl, #8
      001DA6 39               [11] 5285 	add	hl, sp
      001DA7 01 04 00         [10] 5286 	ld	bc, #0x0004
      001DAA ED B0            [21] 5287 	ldir
                                   5288 ;ps_engine.c:616: return combo_count++;
      001DAC 3Ar66r17         [13] 5289 	ld	a, (_combo_count+0)
      001DAF 4F               [ 4] 5290 	ld	c, a
      001DB0 21r66r17         [10] 5291 	ld	hl, #_combo_count
      001DB3 34               [11] 5292 	inc	(hl)
      001DB4 79               [ 4] 5293 	ld	a, c
      001DB5                       5294 00117$:
                                   5295 ;ps_engine.c:617: }
      001DB5 DD F9            [10] 5296 	ld	sp, ix
      001DB7 DD E1            [14] 5297 	pop	ix
      001DB9 C9               [10] 5298 	ret
                                   5299 ;ps_engine.c:619: static void draw_cell(u8 i, u8 x, u8 y) {
                                   5300 ;	---------------------------------
                                   5301 ; Function draw_cell
                                   5302 ; ---------------------------------
      001DBA                       5303 _draw_cell:
      001DBA DD E5            [15] 5304 	push	ix
      001DBC DD 21 00 00      [14] 5305 	ld	ix,#0
      001DC0 DD 39            [15] 5306 	add	ix,sp
      001DC2 FD 21 F6 FF      [14] 5307 	ld	iy, #-10
      001DC6 FD 39            [15] 5308 	add	iy, sp
      001DC8 FD F9            [10] 5309 	ld	sp, iy
      001DCA DD 77 FF         [19] 5310 	ld	-1 (ix), a
      001DCD DD 75 FE         [19] 5311 	ld	-2 (ix), l
                                   5312 ;ps_engine.c:620: u32 key = lev[i] & g_allMask;
      001DD0 01rC8r00         [10] 5313 	ld	bc, #_lev+0
      001DD3 DD 6E FF         [19] 5314 	ld	l, -1 (ix)
                                   5315 ;	spillPairReg hl
                                   5316 ;	spillPairReg hl
      001DD6 26 00            [ 7] 5317 	ld	h, #0x00
                                   5318 ;	spillPairReg hl
                                   5319 ;	spillPairReg hl
      001DD8 29               [11] 5320 	add	hl, hl
      001DD9 29               [11] 5321 	add	hl, hl
      001DDA 09               [11] 5322 	add	hl, bc
      001DDB 4E               [ 7] 5323 	ld	c, (hl)
      001DDC 23               [ 6] 5324 	inc	hl
      001DDD 46               [ 7] 5325 	ld	b, (hl)
      001DDE 23               [ 6] 5326 	inc	hl
      001DDF 5E               [ 7] 5327 	ld	e, (hl)
      001DE0 23               [ 6] 5328 	inc	hl
      001DE1 56               [ 7] 5329 	ld	d, (hl)
      001DE2 79               [ 4] 5330 	ld	a, c
      001DE3 FD 21r0Ar00      [14] 5331 	ld	iy, #_g_allMask
      001DE7 FD A6 00         [19] 5332 	and	a, 0 (iy)
      001DEA 4F               [ 4] 5333 	ld	c, a
      001DEB 78               [ 4] 5334 	ld	a, b
      001DEC FD A6 01         [19] 5335 	and	a, 1 (iy)
      001DEF 47               [ 4] 5336 	ld	b, a
      001DF0 7B               [ 4] 5337 	ld	a, e
      001DF1 FD A6 02         [19] 5338 	and	a, 2 (iy)
      001DF4 5F               [ 4] 5339 	ld	e, a
      001DF5 7A               [ 4] 5340 	ld	a, d
      001DF6 FD A6 03         [19] 5341 	and	a, 3 (iy)
      001DF9 57               [ 4] 5342 	ld	d, a
      001DFA DD 71 FA         [19] 5343 	ld	-6 (ix), c
      001DFD DD 70 FB         [19] 5344 	ld	-5 (ix), b
      001E00 DD 73 FC         [19] 5345 	ld	-4 (ix), e
      001E03 DD 72 FD         [19] 5346 	ld	-3 (ix), d
                                   5347 ;ps_engine.c:621: u8 ci = key ? combo_get(key) : 0xFE;
      001E06 7A               [ 4] 5348 	ld	a, d
      001E07 B3               [ 4] 5349 	or	a, e
      001E08 B0               [ 4] 5350 	or	a, b
      001E09 B1               [ 4] 5351 	or	a, c
      001E0A 28 14            [12] 5352 	jr	Z, 00131$
      001E0C DD 5E FA         [19] 5353 	ld	e, -6 (ix)
      001E0F DD 56 FB         [19] 5354 	ld	d, -5 (ix)
      001E12 DD 6E FC         [19] 5355 	ld	l, -4 (ix)
                                   5356 ;	spillPairReg hl
                                   5357 ;	spillPairReg hl
      001E15 DD 66 FD         [19] 5358 	ld	h, -3 (ix)
                                   5359 ;	spillPairReg hl
                                   5360 ;	spillPairReg hl
      001E18 CDr49r1C         [17] 5361 	call	_combo_get
      001E1B 4F               [ 4] 5362 	ld	c, a
      001E1C 06 00            [ 7] 5363 	ld	b, #0x00
      001E1E 18 03            [12] 5364 	jr	00132$
      001E20                       5365 00131$:
      001E20 01 FE 00         [10] 5366 	ld	bc, #0x00fe
      001E23                       5367 00132$:
                                   5368 ;ps_engine.c:624: if (cell_combo[i] == ci) return;
      001E23 11r67r17         [10] 5369 	ld	de, #_cell_combo+0
      001E26 DD 7E FF         [19] 5370 	ld	a, -1 (ix)
      001E29 83               [ 4] 5371 	add	a, e
      001E2A 5F               [ 4] 5372 	ld	e, a
      001E2B 3E 00            [ 7] 5373 	ld	a, #0x00
      001E2D 8A               [ 4] 5374 	adc	a, d
      001E2E 57               [ 4] 5375 	ld	d, a
      001E2F 1A               [ 7] 5376 	ld	a, (de)
      001E30 91               [ 4] 5377 	sub	a, c
      001E31 CAr6Br1F         [10] 5378 	jp	Z,00129$
      001E34 18 00            [12] 5379 	jr	00102$
      001E36                       5380 00102$:
                                   5381 ;ps_engine.c:625: cell_combo[i] = ci;
      001E36 79               [ 4] 5382 	ld	a, c
      001E37 12               [ 7] 5383 	ld	(de), a
                                   5384 ;ps_engine.c:626: tx = off_x + (x << 1); ty = off_y + (y << 1);
      001E38 DD 7E FE         [19] 5385 	ld	a, -2 (ix)
      001E3B 87               [ 4] 5386 	add	a, a
      001E3C 47               [ 4] 5387 	ld	b, a
      001E3D 3Ar27r18         [13] 5388 	ld	a, (_off_x+0)
      001E40 80               [ 4] 5389 	add	a, b
      001E41 47               [ 4] 5390 	ld	b, a
      001E42 DD 7E 04         [19] 5391 	ld	a, 4 (ix)
      001E45 87               [ 4] 5392 	add	a, a
      001E46 5F               [ 4] 5393 	ld	e, a
      001E47 3Ar28r18         [13] 5394 	ld	a, (_off_y+0)
      001E4A 83               [ 4] 5395 	add	a, e
      001E4B 5F               [ 4] 5396 	ld	e, a
                                   5397 ;ps_engine.c:628: SMS_setTileatXY(tx,     ty,     0);
      001E4C 6B               [ 4] 5398 	ld	l, e
                                   5399 ;	spillPairReg hl
                                   5400 ;	spillPairReg hl
      001E4D 26 00            [ 7] 5401 	ld	h, #0x00
                                   5402 ;	spillPairReg hl
                                   5403 ;	spillPairReg hl
      001E4F DD 70 FC         [19] 5404 	ld	-4 (ix), b
      001E52 DD 36 FD 00      [19] 5405 	ld	-3 (ix), #0x00
                                   5406 ;ps_engine.c:629: SMS_setTileatXY(tx + 1, ty,     0);
      001E56 78               [ 4] 5407 	ld	a, b
                                   5408 ;ps_engine.c:630: SMS_setTileatXY(tx,     ty + 1, 0);
      001E57 16 00            [ 7] 5409 	ld	d, #0x00
                                   5410 ;ps_engine.c:628: SMS_setTileatXY(tx,     ty,     0);
      001E59 29               [11] 5411 	add	hl, hl
      001E5A 29               [11] 5412 	add	hl, hl
      001E5B 29               [11] 5413 	add	hl, hl
      001E5C 29               [11] 5414 	add	hl, hl
      001E5D 29               [11] 5415 	add	hl, hl
      001E5E E3               [19] 5416 	ex	(sp), hl
      001E5F DD 6E FC         [19] 5417 	ld	l, -4 (ix)
                                   5418 ;	spillPairReg hl
                                   5419 ;	spillPairReg hl
      001E62 DD 66 FD         [19] 5420 	ld	h, -3 (ix)
                                   5421 ;	spillPairReg hl
                                   5422 ;	spillPairReg hl
                                   5423 ;ps_engine.c:629: SMS_setTileatXY(tx + 1, ty,     0);
      001E65 3C               [ 4] 5424 	inc	a
      001E66 DD 77 FD         [19] 5425 	ld	-3 (ix), a
                                   5426 ;ps_engine.c:630: SMS_setTileatXY(tx,     ty + 1, 0);
      001E69 13               [ 6] 5427 	inc	de
      001E6A D5               [11] 5428 	push	de
      001E6B FD E1            [14] 5429 	pop	iy
                                   5430 ;ps_engine.c:628: SMS_setTileatXY(tx,     ty,     0);
      001E6D 7D               [ 4] 5431 	ld	a, l
      001E6E DD 86 F6         [19] 5432 	add	a, -10 (ix)
      001E71 5F               [ 4] 5433 	ld	e, a
      001E72 7C               [ 4] 5434 	ld	a, h
      001E73 DD 8E F7         [19] 5435 	adc	a, -9 (ix)
      001E76 57               [ 4] 5436 	ld	d, a
                                   5437 ;ps_engine.c:629: SMS_setTileatXY(tx + 1, ty,     0);
      001E77 DD 7E FD         [19] 5438 	ld	a, -3 (ix)
                                   5439 ;ps_engine.c:630: SMS_setTileatXY(tx,     ty + 1, 0);
                                   5440 ;ps_engine.c:628: SMS_setTileatXY(tx,     ty,     0);
      001E7A EB               [ 4] 5441 	ex	de, hl
      001E7B 29               [11] 5442 	add	hl, hl
      001E7C EB               [ 4] 5443 	ex	de, hl
      001E7D DD 73 FC         [19] 5444 	ld	-4 (ix), e
      001E80 DD 72 FD         [19] 5445 	ld	-3 (ix), d
                                   5446 ;ps_engine.c:629: SMS_setTileatXY(tx + 1, ty,     0);
      001E83 06 00            [ 7] 5447 	ld	b, #0x00
                                   5448 ;ps_engine.c:630: SMS_setTileatXY(tx,     ty + 1, 0);
      001E85 FD E5            [15] 5449 	push	iy
      001E87 D1               [10] 5450 	pop	de
      001E88 EB               [ 4] 5451 	ex	de, hl
      001E89 29               [11] 5452 	add	hl, hl
      001E8A 29               [11] 5453 	add	hl, hl
      001E8B 29               [11] 5454 	add	hl, hl
      001E8C 29               [11] 5455 	add	hl, hl
      001E8D 29               [11] 5456 	add	hl, hl
                                   5457 ;ps_engine.c:628: SMS_setTileatXY(tx,     ty,     0);
      001E8E F5               [11] 5458 	push	af
      001E8F EB               [ 4] 5459 	ex	de, hl
      001E90 DD 7E FC         [19] 5460 	ld	a, -4 (ix)
      001E93 DD 77 F8         [19] 5461 	ld	-8 (ix), a
      001E96 DD 7E FD         [19] 5462 	ld	a, -3 (ix)
      001E99 F6 78            [ 7] 5463 	or	a, #0x78
      001E9B DD 77 F9         [19] 5464 	ld	-7 (ix), a
      001E9E F1               [10] 5465 	pop	af
                                   5466 ;ps_engine.c:629: SMS_setTileatXY(tx + 1, ty,     0);
      001E9F DD 77 FA         [19] 5467 	ld	-6 (ix), a
      001EA2 DD 70 FB         [19] 5468 	ld	-5 (ix), b
                                   5469 ;ps_engine.c:630: SMS_setTileatXY(tx,     ty + 1, 0);
      001EA5 19               [11] 5470 	add	hl, de
                                   5471 ;ps_engine.c:629: SMS_setTileatXY(tx + 1, ty,     0);
      001EA6 DD 7E FA         [19] 5472 	ld	a, -6 (ix)
      001EA9 DD 86 F6         [19] 5473 	add	a, -10 (ix)
      001EAC DD 77 FC         [19] 5474 	ld	-4 (ix), a
      001EAF DD 7E FB         [19] 5475 	ld	a, -5 (ix)
      001EB2 DD 8E F7         [19] 5476 	adc	a, -9 (ix)
      001EB5 DD 77 FD         [19] 5477 	ld	-3 (ix), a
                                   5478 ;ps_engine.c:630: SMS_setTileatXY(tx,     ty + 1, 0);
      001EB8 29               [11] 5479 	add	hl, hl
                                   5480 ;ps_engine.c:631: SMS_setTileatXY(tx + 1, ty + 1, 0);
      001EB9 DD 7E FA         [19] 5481 	ld	a, -6 (ix)
      001EBC 83               [ 4] 5482 	add	a, e
      001EBD 5F               [ 4] 5483 	ld	e, a
      001EBE DD 7E FB         [19] 5484 	ld	a, -5 (ix)
      001EC1 8A               [ 4] 5485 	adc	a, d
      001EC2 57               [ 4] 5486 	ld	d, a
                                   5487 ;ps_engine.c:629: SMS_setTileatXY(tx + 1, ty,     0);
      001EC3 DD 46 FC         [19] 5488 	ld	b, -4 (ix)
      001EC6 DD 7E FD         [19] 5489 	ld	a, -3 (ix)
      001EC9 CB 20            [ 8] 5490 	sla	b
      001ECB 8F               [ 4] 5491 	adc	a, a
                                   5492 ;ps_engine.c:630: SMS_setTileatXY(tx,     ty + 1, 0);
      001ECC DD 75 FA         [19] 5493 	ld	-6 (ix), l
      001ECF F5               [11] 5494 	push	af
      001ED0 7C               [ 4] 5495 	ld	a, h
      001ED1 F6 78            [ 7] 5496 	or	a, #0x78
      001ED3 DD 77 FB         [19] 5497 	ld	-5 (ix), a
      001ED6 F1               [10] 5498 	pop	af
                                   5499 ;ps_engine.c:631: SMS_setTileatXY(tx + 1, ty + 1, 0);
      001ED7 EB               [ 4] 5500 	ex	de, hl
      001ED8 29               [11] 5501 	add	hl, hl
      001ED9 EB               [ 4] 5502 	ex	de, hl
                                   5503 ;ps_engine.c:629: SMS_setTileatXY(tx + 1, ty,     0);
      001EDA DD 70 FC         [19] 5504 	ld	-4 (ix), b
      001EDD F6 78            [ 7] 5505 	or	a, #0x78
      001EDF DD 77 FD         [19] 5506 	ld	-3 (ix), a
                                   5507 ;ps_engine.c:631: SMS_setTileatXY(tx + 1, ty + 1, 0);
      001EE2 7A               [ 4] 5508 	ld	a, d
      001EE3 F6 78            [ 7] 5509 	or	a, #0x78
      001EE5 57               [ 4] 5510 	ld	d, a
                                   5511 ;ps_engine.c:627: if (ci == 0xFE) {
      001EE6 79               [ 4] 5512 	ld	a, c
      001EE7 D6 FE            [ 7] 5513 	sub	a, #0xfe
      001EE9 20 39            [12] 5514 	jr	NZ, 00116$
                                   5515 ;ps_engine.c:628: SMS_setTileatXY(tx,     ty,     0);
      001EEB DD 6E F8         [19] 5516 	ld	l, -8 (ix)
                                   5517 ;	spillPairReg hl
                                   5518 ;	spillPairReg hl
      001EEE DD 66 F9         [19] 5519 	ld	h, -7 (ix)
                                   5520 ;	spillPairReg hl
                                   5521 ;	spillPairReg hl
      001EF1 CDr00r00         [17] 5522 	call	_SMS_crt0_RST08
      001EF4 21 00 00         [10] 5523 	ld	hl, #0x0000
      001EF7 CDr00r00         [17] 5524 	call	_SMS_crt0_RST18
                                   5525 ;ps_engine.c:629: SMS_setTileatXY(tx + 1, ty,     0);
      001EFA DD 6E FC         [19] 5526 	ld	l, -4 (ix)
                                   5527 ;	spillPairReg hl
                                   5528 ;	spillPairReg hl
      001EFD DD 66 FD         [19] 5529 	ld	h, -3 (ix)
                                   5530 ;	spillPairReg hl
                                   5531 ;	spillPairReg hl
      001F00 CDr00r00         [17] 5532 	call	_SMS_crt0_RST08
      001F03 21 00 00         [10] 5533 	ld	hl, #0x0000
      001F06 CDr00r00         [17] 5534 	call	_SMS_crt0_RST18
                                   5535 ;ps_engine.c:630: SMS_setTileatXY(tx,     ty + 1, 0);
      001F09 DD 6E FA         [19] 5536 	ld	l, -6 (ix)
                                   5537 ;	spillPairReg hl
                                   5538 ;	spillPairReg hl
      001F0C DD 66 FB         [19] 5539 	ld	h, -5 (ix)
                                   5540 ;	spillPairReg hl
                                   5541 ;	spillPairReg hl
      001F0F CDr00r00         [17] 5542 	call	_SMS_crt0_RST08
      001F12 21 00 00         [10] 5543 	ld	hl, #0x0000
      001F15 CDr00r00         [17] 5544 	call	_SMS_crt0_RST18
                                   5545 ;ps_engine.c:631: SMS_setTileatXY(tx + 1, ty + 1, 0);
      001F18 EB               [ 4] 5546 	ex	de, hl
      001F19 CDr00r00         [17] 5547 	call	_SMS_crt0_RST08
      001F1C 21 00 00         [10] 5548 	ld	hl, #0x0000
      001F1F CDr00r00         [17] 5549 	call	_SMS_crt0_RST18
                                   5550 ;ps_engine.c:632: return;
      001F22 18 47            [12] 5551 	jr	00129$
      001F24                       5552 00116$:
                                   5553 ;ps_engine.c:634: base = COMBO_BASE + ((u16)ci << 2);
      001F24 69               [ 4] 5554 	ld	l, c
                                   5555 ;	spillPairReg hl
                                   5556 ;	spillPairReg hl
      001F25 26 00            [ 7] 5557 	ld	h, #0x00
                                   5558 ;	spillPairReg hl
                                   5559 ;	spillPairReg hl
      001F27 29               [11] 5560 	add	hl, hl
      001F28 29               [11] 5561 	add	hl, hl
      001F29 23               [ 6] 5562 	inc	hl
                                   5563 ;ps_engine.c:635: SMS_setTileatXY(tx,     ty,     base);
      001F2A E5               [11] 5564 	push	hl
      001F2B DD 6E F8         [19] 5565 	ld	l, -8 (ix)
                                   5566 ;	spillPairReg hl
                                   5567 ;	spillPairReg hl
      001F2E DD 66 F9         [19] 5568 	ld	h, -7 (ix)
                                   5569 ;	spillPairReg hl
                                   5570 ;	spillPairReg hl
      001F31 CDr00r00         [17] 5571 	call	_SMS_crt0_RST08
      001F34 C1               [10] 5572 	pop	bc
      001F35 69               [ 4] 5573 	ld	l, c
                                   5574 ;	spillPairReg hl
                                   5575 ;	spillPairReg hl
      001F36 60               [ 4] 5576 	ld	h, b
                                   5577 ;	spillPairReg hl
                                   5578 ;	spillPairReg hl
      001F37 CDr00r00         [17] 5579 	call	_SMS_crt0_RST18
                                   5580 ;ps_engine.c:636: SMS_setTileatXY(tx + 1, ty,     base + 1);
      001F3A C5               [11] 5581 	push	bc
      001F3B DD 6E FC         [19] 5582 	ld	l, -4 (ix)
                                   5583 ;	spillPairReg hl
                                   5584 ;	spillPairReg hl
      001F3E DD 66 FD         [19] 5585 	ld	h, -3 (ix)
                                   5586 ;	spillPairReg hl
                                   5587 ;	spillPairReg hl
      001F41 CDr00r00         [17] 5588 	call	_SMS_crt0_RST08
      001F44 C1               [10] 5589 	pop	bc
      001F45 69               [ 4] 5590 	ld	l, c
                                   5591 ;	spillPairReg hl
                                   5592 ;	spillPairReg hl
      001F46 60               [ 4] 5593 	ld	h, b
                                   5594 ;	spillPairReg hl
                                   5595 ;	spillPairReg hl
      001F47 23               [ 6] 5596 	inc	hl
      001F48 CDr00r00         [17] 5597 	call	_SMS_crt0_RST18
                                   5598 ;ps_engine.c:637: SMS_setTileatXY(tx,     ty + 1, base + 2);
      001F4B C5               [11] 5599 	push	bc
      001F4C DD 6E FA         [19] 5600 	ld	l, -6 (ix)
                                   5601 ;	spillPairReg hl
                                   5602 ;	spillPairReg hl
      001F4F DD 66 FB         [19] 5603 	ld	h, -5 (ix)
                                   5604 ;	spillPairReg hl
                                   5605 ;	spillPairReg hl
      001F52 CDr00r00         [17] 5606 	call	_SMS_crt0_RST08
      001F55 C1               [10] 5607 	pop	bc
      001F56 69               [ 4] 5608 	ld	l, c
                                   5609 ;	spillPairReg hl
                                   5610 ;	spillPairReg hl
      001F57 60               [ 4] 5611 	ld	h, b
                                   5612 ;	spillPairReg hl
                                   5613 ;	spillPairReg hl
      001F58 23               [ 6] 5614 	inc	hl
      001F59 23               [ 6] 5615 	inc	hl
      001F5A CDr00r00         [17] 5616 	call	_SMS_crt0_RST18
                                   5617 ;ps_engine.c:638: SMS_setTileatXY(tx + 1, ty + 1, base + 3);
      001F5D C5               [11] 5618 	push	bc
      001F5E EB               [ 4] 5619 	ex	de, hl
      001F5F CDr00r00         [17] 5620 	call	_SMS_crt0_RST08
      001F62 C1               [10] 5621 	pop	bc
      001F63 03               [ 6] 5622 	inc	bc
      001F64 03               [ 6] 5623 	inc	bc
      001F65 03               [ 6] 5624 	inc	bc
      001F66 69               [ 4] 5625 	ld	l, c
                                   5626 ;	spillPairReg hl
                                   5627 ;	spillPairReg hl
      001F67 60               [ 4] 5628 	ld	h, b
                                   5629 ;	spillPairReg hl
                                   5630 ;	spillPairReg hl
      001F68 CDr00r00         [17] 5631 	call	_SMS_crt0_RST18
      001F6B                       5632 00129$:
                                   5633 ;ps_engine.c:639: }
      001F6B DD F9            [10] 5634 	ld	sp, ix
      001F6D DD E1            [14] 5635 	pop	ix
      001F6F E1               [10] 5636 	pop	hl
      001F70 33               [ 6] 5637 	inc	sp
      001F71 E9               [ 4] 5638 	jp	(hl)
                                   5639 ;ps_engine.c:641: static void draw_board(void) {          /* draws only stale cells             */
                                   5640 ;	---------------------------------
                                   5641 ; Function draw_board
                                   5642 ; ---------------------------------
      001F72                       5643 _draw_board:
                                   5644 ;ps_engine.c:642: u8 x, y, i = 0;
                                   5645 ;ps_engine.c:643: for (x = 0; x < g_w; x++)
      001F72 01 00 00         [10] 5646 	ld	bc, #0x0
      001F75                       5647 00107$:
      001F75 21rCAr15         [10] 5648 	ld	hl, #_g_w
      001F78 78               [ 4] 5649 	ld	a, b
      001F79 96               [ 7] 5650 	sub	a, (hl)
      001F7A D0               [11] 5651 	ret	NC
                                   5652 ;ps_engine.c:644: for (y = 0; y < g_h; y++, i++)
      001F7B 16 00            [ 7] 5653 	ld	d, #0x00
      001F7D                       5654 00104$:
      001F7D 21rCBr15         [10] 5655 	ld	hl, #_g_h
      001F80 7A               [ 4] 5656 	ld	a, d
      001F81 96               [ 7] 5657 	sub	a, (hl)
      001F82 30 0F            [12] 5658 	jr	NC, 00115$
                                   5659 ;ps_engine.c:645: draw_cell(i, x, y);
      001F84 C5               [11] 5660 	push	bc
      001F85 D5               [11] 5661 	push	de
      001F86 D5               [11] 5662 	push	de
      001F87 33               [ 6] 5663 	inc	sp
      001F88 68               [ 4] 5664 	ld	l, b
                                   5665 ;	spillPairReg hl
                                   5666 ;	spillPairReg hl
      001F89 79               [ 4] 5667 	ld	a, c
      001F8A CDrBAr1D         [17] 5668 	call	_draw_cell
      001F8D D1               [10] 5669 	pop	de
      001F8E C1               [10] 5670 	pop	bc
                                   5671 ;ps_engine.c:644: for (y = 0; y < g_h; y++, i++)
      001F8F 14               [ 4] 5672 	inc	d
      001F90 0C               [ 4] 5673 	inc	c
      001F91 18 EA            [12] 5674 	jr	00104$
      001F93                       5675 00115$:
                                   5676 ;ps_engine.c:643: for (x = 0; x < g_w; x++)
      001F93 04               [ 4] 5677 	inc	b
                                   5678 ;ps_engine.c:646: }
      001F94 18 DF            [12] 5679 	jr	00107$
                                   5680 ;ps_engine.c:648: static void screen_clear(void) {
                                   5681 ;	---------------------------------
                                   5682 ; Function screen_clear
                                   5683 ; ---------------------------------
      001F96                       5684 _screen_clear:
                                   5685 ;ps_engine.c:650: for (y = 0; y < 24; y++) {
      001F96 06 00            [ 7] 5686 	ld	b, #0x00
      001F98                       5687 00105$:
                                   5688 ;ps_engine.c:651: SMS_setNextTileatXY(0, y);
      001F98 68               [ 4] 5689 	ld	l, b
                                   5690 ;	spillPairReg hl
                                   5691 ;	spillPairReg hl
      001F99 26 00            [ 7] 5692 	ld	h, #0x00
                                   5693 ;	spillPairReg hl
                                   5694 ;	spillPairReg hl
      001F9B 29               [11] 5695 	add	hl, hl
      001F9C 29               [11] 5696 	add	hl, hl
      001F9D 29               [11] 5697 	add	hl, hl
      001F9E 29               [11] 5698 	add	hl, hl
      001F9F 29               [11] 5699 	add	hl, hl
      001FA0 29               [11] 5700 	add	hl, hl
      001FA1 7C               [ 4] 5701 	ld	a, h
      001FA2 F6 78            [ 7] 5702 	or	a, #0x78
      001FA4 67               [ 4] 5703 	ld	h, a
                                   5704 ;	spillPairReg hl
                                   5705 ;	spillPairReg hl
      001FA5 CDr00r00         [17] 5706 	call	_SMS_crt0_RST08
                                   5707 ;ps_engine.c:652: for (x = 0; x < 32; x++) SMS_setTile(0);
      001FA8 0E 00            [ 7] 5708 	ld	c, #0x00
      001FAA                       5709 00103$:
      001FAA 21 00 00         [10] 5710 	ld	hl, #0x0000
      001FAD CDr00r00         [17] 5711 	call	_SMS_crt0_RST18
      001FB0 0C               [ 4] 5712 	inc	c
      001FB1 79               [ 4] 5713 	ld	a, c
      001FB2 D6 20            [ 7] 5714 	sub	a, #0x20
      001FB4 38 F4            [12] 5715 	jr	C, 00103$
                                   5716 ;ps_engine.c:650: for (y = 0; y < 24; y++) {
      001FB6 04               [ 4] 5717 	inc	b
      001FB7 78               [ 4] 5718 	ld	a, b
      001FB8 D6 18            [ 7] 5719 	sub	a, #0x18
      001FBA 38 DC            [12] 5720 	jr	C, 00105$
                                   5721 ;ps_engine.c:654: }
      001FBC C9               [10] 5722 	ret
                                   5723 ;ps_engine.c:656: static void board_reset_view(void) {
                                   5724 ;	---------------------------------
                                   5725 ; Function board_reset_view
                                   5726 ; ---------------------------------
      001FBD                       5727 _board_reset_view:
                                   5728 ;ps_engine.c:658: screen_clear();
      001FBD CDr96r1F         [17] 5729 	call	_screen_clear
                                   5730 ;ps_engine.c:659: combo_count = 0;
      001FC0 21r66r17         [10] 5731 	ld	hl, #_combo_count
                                   5732 ;ps_engine.c:660: for (i = 0; i < g_ncells; i++) cell_combo[i] = 0xFF;
      001FC3 36 00            [10] 5733 	ld	(hl), #0x00
      001FC5 4E               [ 7] 5734 	ld	c, (hl)
      001FC6                       5735 00103$:
      001FC6 21rCCr15         [10] 5736 	ld	hl, #_g_ncells
      001FC9 79               [ 4] 5737 	ld	a, c
      001FCA 96               [ 7] 5738 	sub	a, (hl)
      001FCB 30 0B            [12] 5739 	jr	NC, 00101$
      001FCD 21r67r17         [10] 5740 	ld	hl, #_cell_combo
      001FD0 06 00            [ 7] 5741 	ld	b, #0x00
      001FD2 09               [11] 5742 	add	hl, bc
      001FD3 36 FF            [10] 5743 	ld	(hl), #0xff
      001FD5 0C               [ 4] 5744 	inc	c
      001FD6 18 EE            [12] 5745 	jr	00103$
      001FD8                       5746 00101$:
                                   5747 ;ps_engine.c:661: off_x = (u8)((32 - (g_w << 1)) >> 1);
      001FD8 3ArCAr15         [13] 5748 	ld	a, (_g_w+0)
      001FDB 26 00            [ 7] 5749 	ld	h, #0x00
                                   5750 ;	spillPairReg hl
                                   5751 ;	spillPairReg hl
      001FDD 6F               [ 4] 5752 	ld	l, a
      001FDE 29               [11] 5753 	add	hl, hl
      001FDF 3E 20            [ 7] 5754 	ld	a, #0x20
      001FE1 95               [ 4] 5755 	sub	a, l
      001FE2 4F               [ 4] 5756 	ld	c, a
      001FE3 9F               [ 4] 5757 	sbc	a, a
      001FE4 94               [ 4] 5758 	sub	a, h
      001FE5 47               [ 4] 5759 	ld	b, a
      001FE6 CB 28            [ 8] 5760 	sra	b
      001FE8 CB 19            [ 8] 5761 	rr	c
      001FEA 21r27r18         [10] 5762 	ld	hl, #_off_x
      001FED 71               [ 7] 5763 	ld	(hl), c
                                   5764 ;ps_engine.c:662: off_y = (u8)((24 - (g_h << 1)) >> 1);
      001FEE 3ArCBr15         [13] 5765 	ld	a, (_g_h+0)
      001FF1 26 00            [ 7] 5766 	ld	h, #0x00
                                   5767 ;	spillPairReg hl
                                   5768 ;	spillPairReg hl
      001FF3 6F               [ 4] 5769 	ld	l, a
      001FF4 29               [11] 5770 	add	hl, hl
      001FF5 3E 18            [ 7] 5771 	ld	a, #0x18
      001FF7 95               [ 4] 5772 	sub	a, l
      001FF8 4F               [ 4] 5773 	ld	c, a
      001FF9 9F               [ 4] 5774 	sbc	a, a
      001FFA 94               [ 4] 5775 	sub	a, h
      001FFB 47               [ 4] 5776 	ld	b, a
      001FFC CB 28            [ 8] 5777 	sra	b
      001FFE CB 19            [ 8] 5778 	rr	c
      002000 FD 21r28r18      [14] 5779 	ld	iy, #_off_y
      002004 FD 71 00         [19] 5780 	ld	0 (iy), c
                                   5781 ;ps_engine.c:663: draw_board();
                                   5782 ;ps_engine.c:664: }
      002007 C3r72r1F         [10] 5783 	jp	_draw_board
                                   5784 ;ps_engine.c:667: static void draw_text(u8 x, u8 y, const char *s) {
                                   5785 ;	---------------------------------
                                   5786 ; Function draw_text
                                   5787 ; ---------------------------------
      00200A                       5788 _draw_text:
      00200A DD E5            [15] 5789 	push	ix
      00200C DD 21 00 00      [14] 5790 	ld	ix,#0
      002010 DD 39            [15] 5791 	add	ix,sp
      002012 4F               [ 4] 5792 	ld	c, a
                                   5793 ;ps_engine.c:668: SMS_setNextTileatXY(x, y);
      002013 26 00            [ 7] 5794 	ld	h, #0x00
                                   5795 ;	spillPairReg hl
                                   5796 ;	spillPairReg hl
      002015 29               [11] 5797 	add	hl, hl
      002016 29               [11] 5798 	add	hl, hl
      002017 29               [11] 5799 	add	hl, hl
      002018 29               [11] 5800 	add	hl, hl
      002019 29               [11] 5801 	add	hl, hl
      00201A 06 00            [ 7] 5802 	ld	b, #0x00
      00201C 09               [11] 5803 	add	hl, bc
      00201D 29               [11] 5804 	add	hl, hl
      00201E 7C               [ 4] 5805 	ld	a, h
      00201F F6 78            [ 7] 5806 	or	a, #0x78
      002021 67               [ 4] 5807 	ld	h, a
                                   5808 ;	spillPairReg hl
                                   5809 ;	spillPairReg hl
      002022 CDr00r00         [17] 5810 	call	_SMS_crt0_RST08
                                   5811 ;ps_engine.c:669: while (*s) {
      002025 DD 4E 04         [19] 5812 	ld	c, 4 (ix)
      002028 DD 46 05         [19] 5813 	ld	b, 5 (ix)
      00202B                       5814 00104$:
      00202B 0A               [ 7] 5815 	ld	a, (bc)
      00202C B7               [ 4] 5816 	or	a, a
      00202D 28 18            [12] 5817 	jr	Z, 00107$
                                   5818 ;ps_engine.c:670: u8 c = (u8)*s++;
      00202F 03               [ 6] 5819 	inc	bc
                                   5820 ;ps_engine.c:671: if (c < 32 || c > 127) c = '?';
      002030 5F               [ 4] 5821 	ld	e, a
      002031 D6 20            [ 7] 5822 	sub	a, #0x20
      002033 38 05            [12] 5823 	jr	C, 00101$
      002035 3E 7F            [ 7] 5824 	ld	a, #0x7f
      002037 93               [ 4] 5825 	sub	a, e
      002038 30 02            [12] 5826 	jr	NC, 00102$
      00203A                       5827 00101$:
      00203A 1E 3F            [ 7] 5828 	ld	e, #0x3f
      00203C                       5829 00102$:
                                   5830 ;ps_engine.c:672: SMS_setTile(FONT_BASE + c - 32);
      00203C 16 00            [ 7] 5831 	ld	d, #0x00
      00203E 21 40 01         [10] 5832 	ld	hl, #0x0140
      002041 19               [11] 5833 	add	hl, de
      002042 CDr00r00         [17] 5834 	call	_SMS_crt0_RST18
      002045 18 E4            [12] 5835 	jr	00104$
      002047                       5836 00107$:
                                   5837 ;ps_engine.c:674: }
      002047 DD E1            [14] 5838 	pop	ix
      002049 E1               [10] 5839 	pop	hl
      00204A F1               [10] 5840 	pop	af
      00204B E9               [ 4] 5841 	jp	(hl)
                                   5842 ;ps_engine.c:675: static u8 str_len(const char *s) { u8 n = 0; while (s[n]) n++; return n; }
                                   5843 ;	---------------------------------
                                   5844 ; Function str_len
                                   5845 ; ---------------------------------
      00204C                       5846 _str_len:
      00204C EB               [ 4] 5847 	ex	de, hl
      00204D 0E 00            [ 7] 5848 	ld	c, #0x00
      00204F                       5849 00101$:
      00204F 69               [ 4] 5850 	ld	l, c
      002050 26 00            [ 7] 5851 	ld	h, #0x00
      002052 19               [11] 5852 	add	hl, de
      002053 7E               [ 7] 5853 	ld	a, (hl)
      002054 B7               [ 4] 5854 	or	a, a
      002055 28 03            [12] 5855 	jr	Z, 00103$
      002057 0C               [ 4] 5856 	inc	c
      002058 18 F5            [12] 5857 	jr	00101$
      00205A                       5858 00103$:
      00205A 79               [ 4] 5859 	ld	a, c
      00205B C9               [10] 5860 	ret
                                   5861 ;ps_engine.c:676: static void draw_text_centered(u8 y, const char *s) {
                                   5862 ;	---------------------------------
                                   5863 ; Function draw_text_centered
                                   5864 ; ---------------------------------
      00205C                       5865 _draw_text_centered:
      00205C 6F               [ 4] 5866 	ld	l, a
                                   5867 ;	spillPairReg hl
                                   5868 ;	spillPairReg hl
                                   5869 ;ps_engine.c:677: u8 n = str_len(s);
                                   5870 ;	spillPairReg hl
                                   5871 ;	spillPairReg hl
      00205D EB               [ 4] 5872 	ex	de, hl
      00205E D5               [11] 5873 	push	de
      00205F E5               [11] 5874 	push	hl
                                   5875 ;	spillPairReg hl
                                   5876 ;	spillPairReg hl
      002060 CDr4Cr20         [17] 5877 	call	_str_len
      002063 D1               [10] 5878 	pop	de
      002064 E1               [10] 5879 	pop	hl
      002065 4F               [ 4] 5880 	ld	c, a
                                   5881 ;ps_engine.c:678: if (n > 32) n = 32;
      002066 3E 20            [ 7] 5882 	ld	a, #0x20
      002068 91               [ 4] 5883 	sub	a, c
      002069 30 02            [12] 5884 	jr	NC, 00102$
      00206B 0E 20            [ 7] 5885 	ld	c, #0x20
      00206D                       5886 00102$:
                                   5887 ;ps_engine.c:679: draw_text((u8)((32 - n) >> 1), y, s);
      00206D 06 00            [ 7] 5888 	ld	b, #0x00
      00206F 3E 20            [ 7] 5889 	ld	a, #0x20
      002071 91               [ 4] 5890 	sub	a, c
      002072 4F               [ 4] 5891 	ld	c, a
      002073 9F               [ 4] 5892 	sbc	a, a
      002074 90               [ 4] 5893 	sub	a, b
      002075 47               [ 4] 5894 	ld	b, a
      002076 CB 28            [ 8] 5895 	sra	b
      002078 CB 19            [ 8] 5896 	rr	c
      00207A D5               [11] 5897 	push	de
      00207B 79               [ 4] 5898 	ld	a, c
      00207C CDr0Ar20         [17] 5899 	call	_draw_text
                                   5900 ;ps_engine.c:680: }
      00207F C9               [10] 5901 	ret
                                   5902 ;ps_engine.c:684: static void show_message(const u8 *text) {
                                   5903 ;	---------------------------------
                                   5904 ; Function show_message
                                   5905 ; ---------------------------------
      002080                       5906 _show_message:
      002080 DD E5            [15] 5907 	push	ix
      002082 DD 21 00 00      [14] 5908 	ld	ix,#0
      002086 DD 39            [15] 5909 	add	ix,sp
      002088 FD 21 DC FF      [14] 5910 	ld	iy, #-36
      00208C FD 39            [15] 5911 	add	iy, sp
      00208E FD F9            [10] 5912 	ld	sp, iy
      002090 DD 75 FC         [19] 5913 	ld	-4 (ix), l
      002093 DD 74 FD         [19] 5914 	ld	-3 (ix), h
                                   5915 ;ps_engine.c:686: u8 y = 8;
      002096 DD 36 FB 08      [19] 5916 	ld	-5 (ix), #0x08
                                   5917 ;ps_engine.c:687: screen_clear();
      00209A CDr96r1F         [17] 5918 	call	_screen_clear
                                   5919 ;ps_engine.c:688: while (*text && y < 20) {
      00209D                       5920 00116$:
      00209D DD 6E FC         [19] 5921 	ld	l, -4 (ix)
      0020A0 DD 66 FD         [19] 5922 	ld	h, -3 (ix)
      0020A3 7E               [ 7] 5923 	ld	a, (hl)
      0020A4 B7               [ 4] 5924 	or	a, a
      0020A5 CAr65r21         [10] 5925 	jp	Z, 00118$
      0020A8 DD 7E FB         [19] 5926 	ld	a, -5 (ix)
      0020AB D6 14            [ 7] 5927 	sub	a, #0x14
      0020AD D2r65r21         [10] 5928 	jp	NC, 00118$
                                   5929 ;ps_engine.c:689: u8 n = 0, last_sp = 0xFF;
      0020B0 DD 36 FF FF      [19] 5930 	ld	-1 (ix), #0xff
                                   5931 ;ps_engine.c:690: while (text[n] && n < 30) {
      0020B4 0E 00            [ 7] 5932 	ld	c, #0x00
      0020B6                       5933 00104$:
      0020B6 DD 6E FC         [19] 5934 	ld	l, -4 (ix)
      0020B9 DD 66 FD         [19] 5935 	ld	h, -3 (ix)
      0020BC 06 00            [ 7] 5936 	ld	b, #0x00
      0020BE 09               [11] 5937 	add	hl, bc
      0020BF 5E               [ 7] 5938 	ld	e, (hl)
      0020C0 79               [ 4] 5939 	ld	a, c
      0020C1 D6 1E            [ 7] 5940 	sub	a, #0x1e
      0020C3 3E 00            [ 7] 5941 	ld	a, #0x00
      0020C5 17               [ 4] 5942 	rla
      0020C6 47               [ 4] 5943 	ld	b, a
      0020C7 7B               [ 4] 5944 	ld	a, e
      0020C8 B7               [ 4] 5945 	or	a, a
      0020C9 28 0F            [12] 5946 	jr	Z, 00138$
      0020CB 78               [ 4] 5947 	ld	a, b
      0020CC B7               [ 4] 5948 	or	a, a
      0020CD 28 0B            [12] 5949 	jr	Z, 00138$
                                   5950 ;ps_engine.c:691: if (text[n] == ' ') last_sp = n;
      0020CF 7B               [ 4] 5951 	ld	a, e
      0020D0 D6 20            [ 7] 5952 	sub	a, #0x20
      0020D2 20 03            [12] 5953 	jr	NZ, 00102$
      0020D4 DD 71 FF         [19] 5954 	ld	-1 (ix), c
      0020D7                       5955 00102$:
                                   5956 ;ps_engine.c:692: n++;
      0020D7 0C               [ 4] 5957 	inc	c
      0020D8 18 DC            [12] 5958 	jr	00104$
      0020DA                       5959 00138$:
                                   5960 ;ps_engine.c:694: if (text[n] && last_sp != 0xFF && n >= 30) n = last_sp;
      0020DA 7B               [ 4] 5961 	ld	a, e
      0020DB B7               [ 4] 5962 	or	a, a
      0020DC 28 0D            [12] 5963 	jr	Z, 00134$
      0020DE DD 7E FF         [19] 5964 	ld	a, -1 (ix)
      0020E1 3C               [ 4] 5965 	inc	a
      0020E2 28 07            [12] 5966 	jr	Z, 00134$
      0020E4 CB 40            [ 8] 5967 	bit	0, b
      0020E6 20 03            [12] 5968 	jr	NZ, 00134$
      0020E8 DD 4E FF         [19] 5969 	ld	c, -1 (ix)
                                   5970 ;ps_engine.c:695: { u8 k; for (k = 0; k < n; k++) line[k] = (char)text[k]; line[n] = 0; }
      0020EB                       5971 00134$:
      0020EB 06 00            [ 7] 5972 	ld	b, #0x00
      0020ED                       5973 00120$:
      0020ED 78               [ 4] 5974 	ld	a, b
      0020EE 91               [ 4] 5975 	sub	a, c
      0020EF 30 18            [12] 5976 	jr	NC, 00111$
      0020F1 58               [ 4] 5977 	ld	e, b
      0020F2 16 00            [ 7] 5978 	ld	d, #0x00
      0020F4 21 00 00         [10] 5979 	ld	hl, #0
      0020F7 39               [11] 5980 	add	hl, sp
      0020F8 19               [11] 5981 	add	hl, de
      0020F9 DD 7E FC         [19] 5982 	ld	a, -4 (ix)
      0020FC 80               [ 4] 5983 	add	a, b
      0020FD 5F               [ 4] 5984 	ld	e, a
      0020FE DD 7E FD         [19] 5985 	ld	a, -3 (ix)
      002101 CE 00            [ 7] 5986 	adc	a, #0x00
      002103 57               [ 4] 5987 	ld	d, a
      002104 1A               [ 7] 5988 	ld	a, (de)
      002105 77               [ 7] 5989 	ld	(hl), a
      002106 04               [ 4] 5990 	inc	b
      002107 18 E4            [12] 5991 	jr	00120$
      002109                       5992 00111$:
      002109 59               [ 4] 5993 	ld	e, c
      00210A 16 00            [ 7] 5994 	ld	d, #0x00
      00210C 21 00 00         [10] 5995 	ld	hl, #0
      00210F 39               [11] 5996 	add	hl, sp
      002110 19               [11] 5997 	add	hl, de
      002111 36 00            [10] 5998 	ld	(hl), #0x00
                                   5999 ;ps_engine.c:696: draw_text_centered(y, line);
      002113 C5               [11] 6000 	push	bc
      002114 21 02 00         [10] 6001 	ld	hl, #2
      002117 39               [11] 6002 	add	hl, sp
      002118 EB               [ 4] 6003 	ex	de, hl
      002119 DD 7E FB         [19] 6004 	ld	a, -5 (ix)
      00211C CDr5Cr20         [17] 6005 	call	_draw_text_centered
      00211F C1               [10] 6006 	pop	bc
                                   6007 ;ps_engine.c:697: y += 2;
      002120 DD 7E FB         [19] 6008 	ld	a, -5 (ix)
      002123 C6 02            [ 7] 6009 	add	a, #0x02
      002125 DD 77 FB         [19] 6010 	ld	-5 (ix), a
                                   6011 ;ps_engine.c:698: text += n;
      002128 79               [ 4] 6012 	ld	a, c
      002129 DD 86 FC         [19] 6013 	add	a, -4 (ix)
      00212C DD 77 FC         [19] 6014 	ld	-4 (ix), a
      00212F 3E 00            [ 7] 6015 	ld	a, #0x00
      002131 DD 8E FD         [19] 6016 	adc	a, -3 (ix)
      002134 DD 77 FD         [19] 6017 	ld	-3 (ix), a
                                   6018 ;ps_engine.c:699: while (*text == ' ') text++;
      002137 DD 7E FC         [19] 6019 	ld	a, -4 (ix)
      00213A DD 77 FE         [19] 6020 	ld	-2 (ix), a
      00213D DD 7E FD         [19] 6021 	ld	a, -3 (ix)
      002140 DD 77 FF         [19] 6022 	ld	-1 (ix), a
      002143                       6023 00112$:
      002143 DD 6E FE         [19] 6024 	ld	l, -2 (ix)
      002146 DD 66 FF         [19] 6025 	ld	h, -1 (ix)
      002149 7E               [ 7] 6026 	ld	a, (hl)
      00214A D6 20            [ 7] 6027 	sub	a, #0x20
      00214C C2r9Dr20         [10] 6028 	jp	NZ,00116$
      00214F DD 34 FE         [23] 6029 	inc	-2 (ix)
      002152 20 03            [12] 6030 	jr	NZ, 00201$
      002154 DD 34 FF         [23] 6031 	inc	-1 (ix)
      002157                       6032 00201$:
      002157 DD 7E FE         [19] 6033 	ld	a, -2 (ix)
      00215A DD 77 FC         [19] 6034 	ld	-4 (ix), a
      00215D DD 7E FF         [19] 6035 	ld	a, -1 (ix)
      002160 DD 77 FD         [19] 6036 	ld	-3 (ix), a
      002163 18 DE            [12] 6037 	jr	00112$
      002165                       6038 00118$:
                                   6039 ;ps_engine.c:701: draw_text_centered(21, "PRESS 1");
      002165 11r75r21         [10] 6040 	ld	de, #___str_0
      002168 3E 15            [ 7] 6041 	ld	a, #0x15
      00216A CDr5Cr20         [17] 6042 	call	_draw_text_centered
                                   6043 ;ps_engine.c:702: wait_button1();
      00216D CDr85r21         [17] 6044 	call	_wait_button1
                                   6045 ;ps_engine.c:703: }
      002170 DD F9            [10] 6046 	ld	sp, ix
      002172 DD E1            [14] 6047 	pop	ix
      002174 C9               [10] 6048 	ret
      002175                       6049 ___str_0:
      002175 50 52 45 53 53 20 31  6050 	.ascii "PRESS 1"
      00217C 00                    6051 	.db 0x00
                                   6052 ;ps_engine.c:707: static void frame_wait(void) { SMS_waitForVBlank(); frame_count++; }
                                   6053 ;	---------------------------------
                                   6054 ; Function frame_wait
                                   6055 ; ---------------------------------
      00217D                       6056 _frame_wait:
      00217D CDr00r00         [17] 6057 	call	_SMS_waitForVBlank
      002180 21rA9r18         [10] 6058 	ld	hl, #_frame_count
      002183 34               [11] 6059 	inc	(hl)
      002184 C9               [10] 6060 	ret
                                   6061 ;ps_engine.c:709: static void wait_button1(void) {
                                   6062 ;	---------------------------------
                                   6063 ; Function wait_button1
                                   6064 ; ---------------------------------
      002185                       6065 _wait_button1:
      002185                       6066 00104$:
                                   6067 ;ps_engine.c:711: frame_wait();
      002185 CDr7Dr21         [17] 6068 	call	_frame_wait
                                   6069 ;ps_engine.c:712: if (SMS_getKeysPressed() & PORT_A_KEY_1) return;
      002188 CDr00r00         [17] 6070 	call	_SMS_getKeysPressed
      00218B CB 63            [ 8] 6071 	bit	4, e
      00218D 28 F6            [12] 6072 	jr	Z, 00104$
                                   6073 ;ps_engine.c:714: }
      00218F C9               [10] 6074 	ret
                                   6075 ;ps_engine.c:720: static u8 poll_input(void) {
                                   6076 ;	---------------------------------
                                   6077 ; Function poll_input
                                   6078 ; ---------------------------------
      002190                       6079 _poll_input:
      002190 DD E5            [15] 6080 	push	ix
      002192 DD 21 00 00      [14] 6081 	ld	ix,#0
      002196 DD 39            [15] 6082 	add	ix,sp
      002198 F5               [11] 6083 	push	af
                                   6084 ;ps_engine.c:722: u16 ks = SMS_getKeysStatus();
      002199 CDr00r00         [17] 6085 	call	_SMS_getKeysStatus
      00219C 4B               [ 4] 6086 	ld	c, e
      00219D 42               [ 4] 6087 	ld	b, d
                                   6088 ;ps_engine.c:723: u16 pressed = ks & ~held_prev;
      00219E 3ArAAr18         [13] 6089 	ld	a, (_poll_input_held_prev_65536_270+0)
      0021A1 2F               [ 4] 6090 	cpl
      0021A2 F5               [11] 6091 	push	af
      0021A3 3ArABr18         [13] 6092 	ld	a, (_poll_input_held_prev_65536_270+1)
      0021A6 2F               [ 4] 6093 	cpl
      0021A7 57               [ 4] 6094 	ld	d, a
      0021A8 F1               [10] 6095 	pop	af
      0021A9 A1               [ 4] 6096 	and	a, c
      0021AA 5F               [ 4] 6097 	ld	e, a
      0021AB 7A               [ 4] 6098 	ld	a, d
      0021AC A0               [ 4] 6099 	and	a, b
      0021AD 57               [ 4] 6100 	ld	d, a
                                   6101 ;ps_engine.c:724: u8 r = 0xFF;
      0021AE DD 36 FE FF      [19] 6102 	ld	-2 (ix), #0xff
                                   6103 ;ps_engine.c:728: if (hold2 == 60 && !(g_flags & FLG_NORESTART)) { held_prev = ks; return 6; }
      0021B2 3Ar03r00         [13] 6104 	ld	a, (_g_flags+0)
      0021B5 DD 77 FF         [19] 6105 	ld	-1 (ix), a
                                   6106 ;ps_engine.c:726: if (ks & PORT_A_KEY_2) {
      0021B8 CB 69            [ 8] 6107 	bit	5, c
      0021BA 28 1D            [12] 6108 	jr	Z, 00108$
                                   6109 ;ps_engine.c:727: hold2++;
      0021BC FD 21rADr18      [14] 6110 	ld	iy, #_poll_input_hold2_65536_270
      0021C0 FD 34 00         [23] 6111 	inc	0 (iy)
                                   6112 ;ps_engine.c:728: if (hold2 == 60 && !(g_flags & FLG_NORESTART)) { held_prev = ks; return 6; }
      0021C3 3ArADr18         [13] 6113 	ld	a, (_poll_input_hold2_65536_270+0)
      0021C6 D6 3C            [ 7] 6114 	sub	a, #0x3c
      0021C8 20 2E            [12] 6115 	jr	NZ, 00109$
      0021CA DD CB FF 56      [20] 6116 	bit	2, -1 (ix)
      0021CE 20 28            [12] 6117 	jr	NZ, 00109$
      0021D0 ED 43rAAr18      [20] 6118 	ld	(_poll_input_held_prev_65536_270), bc
      0021D4 3E 06            [ 7] 6119 	ld	a, #0x06
      0021D6 C3r95r22         [10] 6120 	jp	00144$
      0021D9                       6121 00108$:
                                   6122 ;ps_engine.c:730: if (hold2 && hold2 < 60) { held_prev = ks; hold2 = 0; return 5; }
      0021D9 3ArADr18         [13] 6123 	ld	a, (_poll_input_hold2_65536_270+0)
      0021DC B7               [ 4] 6124 	or	a, a
      0021DD 28 15            [12] 6125 	jr	Z, 00105$
      0021DF 3ArADr18         [13] 6126 	ld	a, (_poll_input_hold2_65536_270+0)
      0021E2 D6 3C            [ 7] 6127 	sub	a, #0x3c
      0021E4 30 0E            [12] 6128 	jr	NC, 00105$
      0021E6 ED 43rAAr18      [20] 6129 	ld	(_poll_input_held_prev_65536_270), bc
      0021EA 21rADr18         [10] 6130 	ld	hl, #_poll_input_hold2_65536_270
      0021ED 36 00            [10] 6131 	ld	(hl), #0x00
      0021EF 3E 05            [ 7] 6132 	ld	a, #0x05
      0021F1 C3r95r22         [10] 6133 	jp	00144$
      0021F4                       6134 00105$:
                                   6135 ;ps_engine.c:731: hold2 = 0;
      0021F4 AF               [ 4] 6136 	xor	a, a
      0021F5 32rADr18         [13] 6137 	ld	(#_poll_input_hold2_65536_270), a
      0021F8                       6138 00109$:
                                   6139 ;ps_engine.c:734: if (pressed & PORT_A_KEY_UP) r = 0;
      0021F8 CB 43            [ 8] 6140 	bit	0, e
      0021FA 28 06            [12] 6141 	jr	Z, 00123$
      0021FC DD 36 FE 00      [19] 6142 	ld	-2 (ix), #0x00
      002200 18 2C            [12] 6143 	jr	00124$
      002202                       6144 00123$:
                                   6145 ;ps_engine.c:735: else if (pressed & PORT_A_KEY_LEFT) r = 1;
      002202 CB 53            [ 8] 6146 	bit	2, e
      002204 28 06            [12] 6147 	jr	Z, 00120$
      002206 DD 36 FE 01      [19] 6148 	ld	-2 (ix), #0x01
      00220A 18 22            [12] 6149 	jr	00124$
      00220C                       6150 00120$:
                                   6151 ;ps_engine.c:736: else if (pressed & PORT_A_KEY_DOWN) r = 2;
      00220C CB 4B            [ 8] 6152 	bit	1, e
      00220E 28 06            [12] 6153 	jr	Z, 00117$
      002210 DD 36 FE 02      [19] 6154 	ld	-2 (ix), #0x02
      002214 18 18            [12] 6155 	jr	00124$
      002216                       6156 00117$:
                                   6157 ;ps_engine.c:737: else if (pressed & PORT_A_KEY_RIGHT) r = 3;
      002216 CB 5B            [ 8] 6158 	bit	3, e
      002218 28 06            [12] 6159 	jr	Z, 00114$
      00221A DD 36 FE 03      [19] 6160 	ld	-2 (ix), #0x03
      00221E 18 0E            [12] 6161 	jr	00124$
      002220                       6162 00114$:
                                   6163 ;ps_engine.c:738: else if ((pressed & PORT_A_KEY_1) && !(g_flags & FLG_NOACTION)) r = 4;
      002220 CB 63            [ 8] 6164 	bit	4, e
      002222 28 0A            [12] 6165 	jr	Z, 00124$
      002224 DD CB FF 66      [20] 6166 	bit	4, -1 (ix)
      002228 20 04            [12] 6167 	jr	NZ, 00124$
      00222A DD 36 FE 04      [19] 6168 	ld	-2 (ix), #0x04
      00222E                       6169 00124$:
                                   6170 ;ps_engine.c:740: if (r != 0xFF) rep_timer = REPEAT_DELAY;
      00222E DD 7E FE         [19] 6171 	ld	a, -2 (ix)
      002231 3C               [ 4] 6172 	inc	a
      002232 28 07            [12] 6173 	jr	Z, 00142$
      002234 3E 12            [ 7] 6174 	ld	a, #0x12
      002236 32rACr18         [13] 6175 	ld	(#_poll_input_rep_timer_65536_270), a
      002239 18 3F            [12] 6176 	jr	00143$
      00223B                       6177 00142$:
                                   6178 ;ps_engine.c:741: else if (ks & (PORT_A_KEY_UP | PORT_A_KEY_DOWN | PORT_A_KEY_LEFT | PORT_A_KEY_RIGHT)) {
      00223B 79               [ 4] 6179 	ld	a, c
      00223C E6 0F            [ 7] 6180 	and	a, #0x0f
      00223E 28 3A            [12] 6181 	jr	Z, 00143$
                                   6182 ;ps_engine.c:742: if (rep_timer) rep_timer--;
      002240 3ArACr18         [13] 6183 	ld	a, (_poll_input_rep_timer_65536_270+0)
      002243 B7               [ 4] 6184 	or	a, a
      002244 28 09            [12] 6185 	jr	Z, 00137$
      002246 FD 21rACr18      [14] 6186 	ld	iy, #_poll_input_rep_timer_65536_270
      00224A FD 35 00         [23] 6187 	dec	0 (iy)
      00224D 18 2B            [12] 6188 	jr	00143$
      00224F                       6189 00137$:
                                   6190 ;ps_engine.c:744: rep_timer = REPEAT_RATE;
      00224F 3E 07            [ 7] 6191 	ld	a, #0x07
      002251 32rACr18         [13] 6192 	ld	(#_poll_input_rep_timer_65536_270), a
                                   6193 ;ps_engine.c:745: if (ks & PORT_A_KEY_UP) r = 0;
      002254 CB 41            [ 8] 6194 	bit	0, c
      002256 28 06            [12] 6195 	jr	Z, 00134$
      002258 DD 36 FE 00      [19] 6196 	ld	-2 (ix), #0x00
      00225C 18 1C            [12] 6197 	jr	00143$
      00225E                       6198 00134$:
                                   6199 ;ps_engine.c:746: else if (ks & PORT_A_KEY_LEFT) r = 1;
      00225E CB 51            [ 8] 6200 	bit	2, c
      002260 28 06            [12] 6201 	jr	Z, 00131$
      002262 DD 36 FE 01      [19] 6202 	ld	-2 (ix), #0x01
      002266 18 12            [12] 6203 	jr	00143$
      002268                       6204 00131$:
                                   6205 ;ps_engine.c:747: else if (ks & PORT_A_KEY_DOWN) r = 2;
      002268 CB 49            [ 8] 6206 	bit	1, c
      00226A 28 06            [12] 6207 	jr	Z, 00128$
      00226C DD 36 FE 02      [19] 6208 	ld	-2 (ix), #0x02
      002270 18 08            [12] 6209 	jr	00143$
      002272                       6210 00128$:
                                   6211 ;ps_engine.c:748: else if (ks & PORT_A_KEY_RIGHT) r = 3;
      002272 CB 59            [ 8] 6212 	bit	3, c
      002274 28 04            [12] 6213 	jr	Z, 00143$
      002276 DD 36 FE 03      [19] 6214 	ld	-2 (ix), #0x03
      00227A                       6215 00143$:
                                   6216 ;ps_engine.c:751: held_prev = ks;
      00227A ED 43rAAr18      [20] 6217 	ld	(_poll_input_held_prev_65536_270), bc
                                   6218 ;ps_engine.c:752: rng_state ^= frame_count;             /* stir RNG with input timing       */
      00227E 3ArA9r18         [13] 6219 	ld	a, (_frame_count+0)
      002281 4F               [ 4] 6220 	ld	c, a
      002282 06 00            [ 7] 6221 	ld	b, #0x00
      002284 3Ar00r00         [13] 6222 	ld	a, (_rng_state+0)
      002287 A9               [ 4] 6223 	xor	a, c
      002288 32r00r00         [13] 6224 	ld	(_rng_state+0), a
      00228B 3Ar01r00         [13] 6225 	ld	a, (_rng_state+1)
      00228E A8               [ 4] 6226 	xor	a, b
      00228F 32r01r00         [13] 6227 	ld	(_rng_state+1), a
                                   6228 ;ps_engine.c:753: return r;
      002292 DD 7E FE         [19] 6229 	ld	a, -2 (ix)
      002295                       6230 00144$:
                                   6231 ;ps_engine.c:754: }
      002295 DD F9            [10] 6232 	ld	sp, ix
      002297 DD E1            [14] 6233 	pop	ix
      002299 C9               [10] 6234 	ret
                                   6235 ;ps_engine.c:757: static void win_flash(void) {
                                   6236 ;	---------------------------------
                                   6237 ; Function win_flash
                                   6238 ; ---------------------------------
      00229A                       6239 _win_flash:
                                   6240 ;ps_engine.c:759: for (f = 0; f < 3; f++) {
      00229A 0E 00            [ 7] 6241 	ld	c, #0x00
                                   6242 ;ps_engine.c:760: for (i = 0; i < 16; i++) SMS_setBGPaletteColor(i, 0x3F);
      00229C                       6243 00109$:
      00229C 06 00            [ 7] 6244 	ld	b, #0x00
      00229E                       6245 00103$:
      00229E C5               [11] 6246 	push	bc
      00229F 2E 3F            [ 7] 6247 	ld	l, #0x3f
                                   6248 ;	spillPairReg hl
                                   6249 ;	spillPairReg hl
      0022A1 78               [ 4] 6250 	ld	a, b
      0022A2 CDr00r00         [17] 6251 	call	_SMS_setBGPaletteColor
      0022A5 C1               [10] 6252 	pop	bc
      0022A6 04               [ 4] 6253 	inc	b
      0022A7 78               [ 4] 6254 	ld	a, b
      0022A8 D6 10            [ 7] 6255 	sub	a, #0x10
      0022AA 38 F2            [12] 6256 	jr	C, 00103$
                                   6257 ;ps_engine.c:761: frame_wait(); frame_wait(); frame_wait();
      0022AC C5               [11] 6258 	push	bc
      0022AD CDr7Dr21         [17] 6259 	call	_frame_wait
      0022B0 CDr7Dr21         [17] 6260 	call	_frame_wait
      0022B3 CDr7Dr21         [17] 6261 	call	_frame_wait
      0022B6 21r66r00         [10] 6262 	ld	hl, #_g_palette
      0022B9 CDr00r00         [17] 6263 	call	_SMS_loadBGPalette
      0022BC CDr7Dr21         [17] 6264 	call	_frame_wait
      0022BF CDr7Dr21         [17] 6265 	call	_frame_wait
      0022C2 CDr7Dr21         [17] 6266 	call	_frame_wait
      0022C5 C1               [10] 6267 	pop	bc
                                   6268 ;ps_engine.c:759: for (f = 0; f < 3; f++) {
      0022C6 0C               [ 4] 6269 	inc	c
      0022C7 79               [ 4] 6270 	ld	a, c
      0022C8 D6 03            [ 7] 6271 	sub	a, #0x03
      0022CA 38 D0            [12] 6272 	jr	C, 00109$
                                   6273 ;ps_engine.c:765: }
      0022CC C9               [10] 6274 	ret
                                   6275 ;ps_engine.c:767: static void title_screen(void) {
                                   6276 ;	---------------------------------
                                   6277 ; Function title_screen
                                   6278 ; ---------------------------------
      0022CD                       6279 _title_screen:
                                   6280 ;ps_engine.c:768: screen_clear();
      0022CD CDr96r1F         [17] 6281 	call	_screen_clear
                                   6282 ;ps_engine.c:769: draw_text_centered(8, g_title);
      0022D0 11r88r00         [10] 6283 	ld	de, #_g_title
      0022D3 3E 08            [ 7] 6284 	ld	a, #0x08
      0022D5 CDr5Cr20         [17] 6285 	call	_draw_text_centered
                                   6286 ;ps_engine.c:770: if (g_author[0]) {
      0022D8 11rA8r00         [10] 6287 	ld	de, #_g_author+0
      0022DB 1A               [ 7] 6288 	ld	a, (de)
      0022DC B7               [ 4] 6289 	or	a, a
      0022DD 28 0F            [12] 6290 	jr	Z, 00102$
                                   6291 ;ps_engine.c:771: draw_text_centered(11, "BY");
      0022DF D5               [11] 6292 	push	de
      0022E0 11r01r23         [10] 6293 	ld	de, #___str_1
      0022E3 3E 0B            [ 7] 6294 	ld	a, #0x0b
      0022E5 CDr5Cr20         [17] 6295 	call	_draw_text_centered
      0022E8 D1               [10] 6296 	pop	de
                                   6297 ;ps_engine.c:772: draw_text_centered(12, g_author);
      0022E9 3E 0C            [ 7] 6298 	ld	a, #0x0c
      0022EB CDr5Cr20         [17] 6299 	call	_draw_text_centered
      0022EE                       6300 00102$:
                                   6301 ;ps_engine.c:774: draw_text_centered(17, "PRESS 1 TO START");
      0022EE 11r04r23         [10] 6302 	ld	de, #___str_2
      0022F1 3E 11            [ 7] 6303 	ld	a, #0x11
      0022F3 CDr5Cr20         [17] 6304 	call	_draw_text_centered
                                   6305 ;ps_engine.c:775: draw_text_centered(20, "2:UNDO  HOLD 2:RESTART");
      0022F6 11r15r23         [10] 6306 	ld	de, #___str_3
      0022F9 3E 14            [ 7] 6307 	ld	a, #0x14
      0022FB CDr5Cr20         [17] 6308 	call	_draw_text_centered
                                   6309 ;ps_engine.c:776: wait_button1();
                                   6310 ;ps_engine.c:777: }
      0022FE C3r85r21         [10] 6311 	jp	_wait_button1
      002301                       6312 ___str_1:
      002301 42 59                 6313 	.ascii "BY"
      002303 00                    6314 	.db 0x00
      002304                       6315 ___str_2:
      002304 50 52 45 53 53 20 31  6316 	.ascii "PRESS 1 TO START"
             20 54 4F 20 53 54 41
             52 54
      002314 00                    6317 	.db 0x00
      002315                       6318 ___str_3:
      002315 32 3A 55 4E 44 4F 20  6319 	.ascii "2:UNDO  HOLD 2:RESTART"
             20 48 4F 4C 44 20 32
             3A 52 45 53 54 41 52
             54
      00232B 00                    6320 	.db 0x00
                                   6321 ;ps_engine.c:780: static u8 post_turn(u8 modified) {
                                   6322 ;	---------------------------------
                                   6323 ; Function post_turn
                                   6324 ; ---------------------------------
      00232C                       6325 _post_turn:
      00232C DD E5            [15] 6326 	push	ix
      00232E DD 21 00 00      [14] 6327 	ld	ix,#0
      002332 DD 39            [15] 6328 	add	ix,sp
      002334 21 FB FF         [10] 6329 	ld	hl, #-5
      002337 39               [11] 6330 	add	hl, sp
      002338 F9               [ 6] 6331 	ld	sp, hl
      002339 4F               [ 4] 6332 	ld	c, a
                                   6333 ;ps_engine.c:781: if (turn_cmd & CMD_RESTART) {
      00233A 3ArCEr15         [13] 6334 	ld	a, (_turn_cmd+0)
      00233D CB 4F            [ 8] 6335 	bit	1, a
      00233F 28 57            [12] 6336 	jr	Z, 00103$
                                   6337 ;ps_engine.c:783: undo_push(bak);
      002341 21rC8r06         [10] 6338 	ld	hl, #_bak
      002344 CDr92r18         [17] 6339 	call	_undo_push
                                   6340 ;ps_engine.c:784: for (i = 0; i < g_ncells; i++) { lev[i] = chkpt[i]; mov[i] = 0; }
      002347 DD 36 FF 00      [19] 6341 	ld	-1 (ix), #0x00
      00234B                       6342 00126$:
      00234B 21rCCr15         [10] 6343 	ld	hl, #_g_ncells
      00234E DD 7E FF         [19] 6344 	ld	a, -1 (ix)
      002351 96               [ 7] 6345 	sub	a, (hl)
      002352 30 3D            [12] 6346 	jr	NC, 00101$
      002354 DD 6E FF         [19] 6347 	ld	l, -1 (ix)
                                   6348 ;	spillPairReg hl
                                   6349 ;	spillPairReg hl
      002357 26 00            [ 7] 6350 	ld	h, #0x00
                                   6351 ;	spillPairReg hl
                                   6352 ;	spillPairReg hl
      002359 29               [11] 6353 	add	hl, hl
      00235A 29               [11] 6354 	add	hl, hl
      00235B 4D               [ 4] 6355 	ld	c, l
      00235C 44               [ 4] 6356 	ld	b, h
      00235D 21rC8r00         [10] 6357 	ld	hl, #_lev
      002360 09               [11] 6358 	add	hl, bc
      002361 EB               [ 4] 6359 	ex	de, hl
      002362 21rC8r09         [10] 6360 	ld	hl, #_chkpt
      002365 09               [11] 6361 	add	hl, bc
      002366 D5               [11] 6362 	push	de
      002367 C5               [11] 6363 	push	bc
      002368 EB               [ 4] 6364 	ex	de, hl
      002369 21 04 00         [10] 6365 	ld	hl, #4
      00236C 39               [11] 6366 	add	hl, sp
      00236D EB               [ 4] 6367 	ex	de, hl
      00236E 01 04 00         [10] 6368 	ld	bc, #0x0004
      002371 ED B0            [21] 6369 	ldir
      002373 C1               [10] 6370 	pop	bc
      002374 D1               [10] 6371 	pop	de
      002375 C5               [11] 6372 	push	bc
      002376 21 02 00         [10] 6373 	ld	hl, #2
      002379 39               [11] 6374 	add	hl, sp
      00237A 01 04 00         [10] 6375 	ld	bc, #0x0004
      00237D ED B0            [21] 6376 	ldir
      00237F C1               [10] 6377 	pop	bc
      002380 21rC8r03         [10] 6378 	ld	hl, #_mov
      002383 09               [11] 6379 	add	hl, bc
      002384 AF               [ 4] 6380 	xor	a, a
      002385 77               [ 7] 6381 	ld	(hl), a
      002386 23               [ 6] 6382 	inc	hl
      002387 77               [ 7] 6383 	ld	(hl), a
      002388 23               [ 6] 6384 	inc	hl
      002389 77               [ 7] 6385 	ld	(hl), a
      00238A 23               [ 6] 6386 	inc	hl
      00238B 77               [ 7] 6387 	ld	(hl), a
      00238C DD 34 FF         [23] 6388 	inc	-1 (ix)
      00238F 18 BA            [12] 6389 	jr	00126$
      002391                       6390 00101$:
                                   6391 ;ps_engine.c:785: draw_board();
      002391 CDr72r1F         [17] 6392 	call	_draw_board
                                   6393 ;ps_engine.c:786: return 0;
      002394 AF               [ 4] 6394 	xor	a, a
      002395 C3r44r24         [10] 6395 	jp	00134$
      002398                       6396 00103$:
                                   6397 ;ps_engine.c:788: if (modified) undo_push(bak);
      002398 79               [ 4] 6398 	ld	a, c
      002399 B7               [ 4] 6399 	or	a, a
      00239A 28 08            [12] 6400 	jr	Z, 00105$
      00239C C5               [11] 6401 	push	bc
      00239D 21rC8r06         [10] 6402 	ld	hl, #_bak
      0023A0 CDr92r18         [17] 6403 	call	_undo_push
      0023A3 C1               [10] 6404 	pop	bc
      0023A4                       6405 00105$:
                                   6406 ;ps_engine.c:789: draw_board();
      0023A4 C5               [11] 6407 	push	bc
      0023A5 CDr72r1F         [17] 6408 	call	_draw_board
      0023A8 C1               [10] 6409 	pop	bc
                                   6410 ;ps_engine.c:791: if (turn_msg != 0xFF) {
      0023A9 3ArCFr15         [13] 6411 	ld	a, (_turn_msg+0)
      0023AC 3C               [ 4] 6412 	inc	a
      0023AD 28 2D            [12] 6413 	jr	Z, 00108$
                                   6414 ;ps_engine.c:792: const u8 *mi = far_resolve(g_far_msgs);
      0023AF C5               [11] 6415 	push	bc
      0023B0 21r85r00         [10] 6416 	ld	hl, #_g_far_msgs
      0023B3 CDrA9r03         [17] 6417 	call	_far_resolve
      0023B6 C1               [10] 6418 	pop	bc
                                   6419 ;ps_engine.c:793: const u8 *mp = far_resolve(mi + 1 + ((u16)turn_msg * 3));
      0023B7 13               [ 6] 6420 	inc	de
      0023B8 3ArCFr15         [13] 6421 	ld	a, (_turn_msg+0)
      0023BB 6F               [ 4] 6422 	ld	l, a
                                   6423 ;	spillPairReg hl
                                   6424 ;	spillPairReg hl
      0023BC 26 00            [ 7] 6425 	ld	h, #0x00
                                   6426 ;	spillPairReg hl
                                   6427 ;	spillPairReg hl
      0023BE D5               [11] 6428 	push	de
      0023BF 5D               [ 4] 6429 	ld	e, l
      0023C0 54               [ 4] 6430 	ld	d, h
      0023C1 29               [11] 6431 	add	hl, hl
      0023C2 19               [11] 6432 	add	hl, de
      0023C3 D1               [10] 6433 	pop	de
      0023C4 19               [11] 6434 	add	hl, de
      0023C5 C5               [11] 6435 	push	bc
      0023C6 CDrA9r03         [17] 6436 	call	_far_resolve
      0023C9 EB               [ 4] 6437 	ex	de, hl
      0023CA CDr80r20         [17] 6438 	call	_show_message
      0023CD CDrBDr1F         [17] 6439 	call	_board_reset_view
      0023D0 C1               [10] 6440 	pop	bc
                                   6441 ;ps_engine.c:797: for (i = 0; i < 60; i++) frame_wait();
      0023D1 06 3C            [ 7] 6442 	ld	b, #0x3c
      0023D3                       6443 00130$:
      0023D3 C5               [11] 6444 	push	bc
      0023D4 CDr7Dr21         [17] 6445 	call	_frame_wait
      0023D7 C1               [10] 6446 	pop	bc
      0023D8 05               [ 4] 6447 	dec	b
      0023D9 78               [ 4] 6448 	ld	a, b
      0023DA 20 F7            [12] 6449 	jr	NZ, 00130$
      0023DC                       6450 00108$:
                                   6451 ;ps_engine.c:800: if (check_win()) { win_flash(); return 1; }
      0023DC C5               [11] 6452 	push	bc
      0023DD CDr82r11         [17] 6453 	call	_check_win
      0023E0 C1               [10] 6454 	pop	bc
      0023E1 B7               [ 4] 6455 	or	a, a
      0023E2 28 07            [12] 6456 	jr	Z, 00110$
      0023E4 CDr9Ar22         [17] 6457 	call	_win_flash
      0023E7 3E 01            [ 7] 6458 	ld	a, #0x01
      0023E9 18 59            [12] 6459 	jr	00134$
      0023EB                       6460 00110$:
                                   6461 ;ps_engine.c:803: if ((turn_cmd & CMD_AGAIN) && modified) {
      0023EB 3ArCEr15         [13] 6462 	ld	a, (_turn_cmd+0)
      0023EE CB 5F            [ 8] 6463 	bit	3, a
      0023F0 28 51            [12] 6464 	jr	Z, 00123$
      0023F2 79               [ 4] 6465 	ld	a, c
      0023F3 B7               [ 4] 6466 	or	a, a
      0023F4 28 4D            [12] 6467 	jr	Z, 00123$
                                   6468 ;ps_engine.c:805: while (iter++ < 250) {
      0023F6 0E 00            [ 7] 6469 	ld	c, #0x00
      0023F8                       6470 00119$:
      0023F8 79               [ 4] 6471 	ld	a, c
      0023F9 D6 FA            [ 7] 6472 	sub	a, #0xfa
      0023FB 30 46            [12] 6473 	jr	NC, 00123$
      0023FD 0C               [ 4] 6474 	inc	c
                                   6475 ;ps_engine.c:807: for (f = 0; f < g_again_interval; f++) frame_wait();
      0023FE 06 00            [ 7] 6476 	ld	b, #0x00
      002400                       6477 00132$:
      002400 21r04r00         [10] 6478 	ld	hl, #_g_again_interval
      002403 78               [ 4] 6479 	ld	a, b
      002404 96               [ 7] 6480 	sub	a, (hl)
      002405 30 08            [12] 6481 	jr	NC, 00111$
      002407 C5               [11] 6482 	push	bc
      002408 CDr7Dr21         [17] 6483 	call	_frame_wait
      00240B C1               [10] 6484 	pop	bc
      00240C 04               [ 4] 6485 	inc	b
      00240D 18 F1            [12] 6486 	jr	00132$
      00240F                       6487 00111$:
                                   6488 ;ps_engine.c:808: m = turn(-1);
      00240F C5               [11] 6489 	push	bc
      002410 3E FF            [ 7] 6490 	ld	a, #0xff
      002412 CDr7Er14         [17] 6491 	call	_turn
      002415 C1               [10] 6492 	pop	bc
      002416 47               [ 4] 6493 	ld	b, a
                                   6494 ;ps_engine.c:809: draw_board();
      002417 C5               [11] 6495 	push	bc
      002418 CDr72r1F         [17] 6496 	call	_draw_board
      00241B C1               [10] 6497 	pop	bc
                                   6498 ;ps_engine.c:810: if (turn_cmd & CMD_RESTART) return post_turn(m);
      00241C 3ArCEr15         [13] 6499 	ld	a, (_turn_cmd+0)
      00241F CB 4F            [ 8] 6500 	bit	1, a
      002421 28 06            [12] 6501 	jr	Z, 00113$
      002423 78               [ 4] 6502 	ld	a, b
      002424 CDr2Cr23         [17] 6503 	call	_post_turn
      002427 18 1B            [12] 6504 	jr	00134$
      002429                       6505 00113$:
                                   6506 ;ps_engine.c:811: if (check_win()) { win_flash(); return 1; }
      002429 C5               [11] 6507 	push	bc
      00242A CDr82r11         [17] 6508 	call	_check_win
      00242D C1               [10] 6509 	pop	bc
      00242E B7               [ 4] 6510 	or	a, a
      00242F 28 07            [12] 6511 	jr	Z, 00115$
      002431 CDr9Ar22         [17] 6512 	call	_win_flash
      002434 3E 01            [ 7] 6513 	ld	a, #0x01
      002436 18 0C            [12] 6514 	jr	00134$
      002438                       6515 00115$:
                                   6516 ;ps_engine.c:812: if (!((turn_cmd & CMD_AGAIN) && m)) break;
      002438 3ArCEr15         [13] 6517 	ld	a, (_turn_cmd+0)
      00243B CB 5F            [ 8] 6518 	bit	3, a
      00243D 28 04            [12] 6519 	jr	Z, 00123$
      00243F 78               [ 4] 6520 	ld	a, b
      002440 B7               [ 4] 6521 	or	a, a
      002441 20 B5            [12] 6522 	jr	NZ, 00119$
      002443                       6523 00123$:
                                   6524 ;ps_engine.c:815: return 0;
      002443 AF               [ 4] 6525 	xor	a, a
      002444                       6526 00134$:
                                   6527 ;ps_engine.c:816: }
      002444 DD F9            [10] 6528 	ld	sp, ix
      002446 DD E1            [14] 6529 	pop	ix
      002448 C9               [10] 6530 	ret
                                   6531 ;ps_engine.c:818: static void load_header(void) {
                                   6532 ;	---------------------------------
                                   6533 ; Function load_header
                                   6534 ; ---------------------------------
      002449                       6535 _load_header:
      002449 DD E5            [15] 6536 	push	ix
      00244B DD 21 00 00      [14] 6537 	ld	ix,#0
      00244F DD 39            [15] 6538 	add	ix,sp
      002451 21 F9 FF         [10] 6539 	ld	hl, #-7
      002454 39               [11] 6540 	add	hl, sp
      002455 F9               [ 6] 6541 	ld	sp, hl
                                   6542 ;ps_engine.c:819: const u8 *h = map_bank(0);
      002456 AF               [ 4] 6543 	xor	a, a
      002457 CDr00r00         [17] 6544 	call	_map_bank
                                   6545 ;ps_engine.c:821: g_nobj  = h[H_NOBJ];  g_nlayers = h[H_NLAYERS];
      00245A 4B               [ 4] 6546 	ld	c,e
      00245B 42               [ 4] 6547 	ld	b,d
      00245C 21 05 00         [10] 6548 	ld	hl, #5
      00245F 19               [11] 6549 	add	hl, de
      002460 7E               [ 7] 6550 	ld	a, (hl)
      002461 32r00r00         [13] 6551 	ld	(_g_nobj+0), a
      002464 59               [ 4] 6552 	ld	e, c
      002465 50               [ 4] 6553 	ld	d, b
      002466 21 06 00         [10] 6554 	ld	hl, #6
      002469 19               [11] 6555 	add	hl, de
      00246A 7E               [ 7] 6556 	ld	a, (hl)
      00246B 32r01r00         [13] 6557 	ld	(_g_nlayers+0), a
                                   6558 ;ps_engine.c:822: g_nlevels = h[H_NLEVELS];
      00246E 59               [ 4] 6559 	ld	e, c
      00246F 50               [ 4] 6560 	ld	d, b
      002470 21 07 00         [10] 6561 	ld	hl, #7
      002473 19               [11] 6562 	add	hl, de
      002474 7E               [ 7] 6563 	ld	a, (hl)
      002475 32r02r00         [13] 6564 	ld	(_g_nlevels+0), a
                                   6565 ;ps_engine.c:823: g_playerMask = rd32(h + H_PLAYERMASK);
      002478 21 08 00         [10] 6566 	ld	hl, #0x0008
      00247B 09               [11] 6567 	add	hl, bc
      00247C C5               [11] 6568 	push	bc
      00247D CDr17r03         [17] 6569 	call	_rd32
      002480 C1               [10] 6570 	pop	bc
      002481 ED 53r06r00      [20] 6571 	ld	(_g_playerMask), de
      002485 22r08r00         [16] 6572 	ld	(_g_playerMask + 2), hl
                                   6573 ;ps_engine.c:824: g_flags = h[H_FLAGS]; g_again_interval = h[H_AGAIN];
      002488 59               [ 4] 6574 	ld	e, c
      002489 50               [ 4] 6575 	ld	d, b
      00248A 21 0C 00         [10] 6576 	ld	hl, #12
      00248D 19               [11] 6577 	add	hl, de
      00248E 7E               [ 7] 6578 	ld	a, (hl)
      00248F 32r03r00         [13] 6579 	ld	(_g_flags+0), a
      002492 59               [ 4] 6580 	ld	e, c
      002493 50               [ 4] 6581 	ld	d, b
      002494 21 0D 00         [10] 6582 	ld	hl, #13
      002497 19               [11] 6583 	add	hl, de
      002498 7E               [ 7] 6584 	ld	a, (hl)
      002499 32r04r00         [13] 6585 	ld	(_g_again_interval+0), a
                                   6586 ;ps_engine.c:825: g_textcol = h[H_TEXTCOL];
      00249C 59               [ 4] 6587 	ld	e, c
      00249D 50               [ 4] 6588 	ld	d, b
      00249E 21 0E 00         [10] 6589 	ld	hl, #14
      0024A1 19               [11] 6590 	add	hl, de
      0024A2 7E               [ 7] 6591 	ld	a, (hl)
      0024A3 32r05r00         [13] 6592 	ld	(_g_textcol+0), a
                                   6593 ;ps_engine.c:826: for (i = 0; i < MAX_LAYERS; i++) g_layerMasks[i] = rd32(h + H_LAYERMASKS + (i << 2));
      0024A6 21 10 00         [10] 6594 	ld	hl, #0x0010
      0024A9 09               [11] 6595 	add	hl, bc
      0024AA EB               [ 4] 6596 	ex	de, hl
      0024AB DD 36 FF 00      [19] 6597 	ld	-1 (ix), #0x00
      0024AF                       6598 00106$:
      0024AF DD 6E FF         [19] 6599 	ld	l, -1 (ix)
                                   6600 ;	spillPairReg hl
                                   6601 ;	spillPairReg hl
      0024B2 26 00            [ 7] 6602 	ld	h, #0x00
                                   6603 ;	spillPairReg hl
                                   6604 ;	spillPairReg hl
      0024B4 29               [11] 6605 	add	hl, hl
      0024B5 29               [11] 6606 	add	hl, hl
      0024B6 3Er0E            [ 7] 6607 	ld	a, #<(_g_layerMasks)
      0024B8 85               [ 4] 6608 	add	a, l
      0024B9 DD 77 F9         [19] 6609 	ld	-7 (ix), a
      0024BC 3Es00            [ 7] 6610 	ld	a, #>(_g_layerMasks)
      0024BE 8C               [ 4] 6611 	adc	a, h
      0024BF DD 77 FA         [19] 6612 	ld	-6 (ix), a
      0024C2 19               [11] 6613 	add	hl, de
      0024C3 C5               [11] 6614 	push	bc
      0024C4 D5               [11] 6615 	push	de
      0024C5 CDr17r03         [17] 6616 	call	_rd32
      0024C8 DD 73 FB         [19] 6617 	ld	-5 (ix), e
      0024CB DD 72 FC         [19] 6618 	ld	-4 (ix), d
      0024CE DD 75 FD         [19] 6619 	ld	-3 (ix), l
      0024D1 DD 74 FE         [19] 6620 	ld	-2 (ix), h
      0024D4 D1               [10] 6621 	pop	de
      0024D5 C1               [10] 6622 	pop	bc
      0024D6 D5               [11] 6623 	push	de
      0024D7 C5               [11] 6624 	push	bc
      0024D8 DD 5E F9         [19] 6625 	ld	e, -7 (ix)
      0024DB DD 56 FA         [19] 6626 	ld	d, -6 (ix)
      0024DE 21 06 00         [10] 6627 	ld	hl, #6
      0024E1 39               [11] 6628 	add	hl, sp
      0024E2 01 04 00         [10] 6629 	ld	bc, #0x0004
      0024E5 ED B0            [21] 6630 	ldir
      0024E7 C1               [10] 6631 	pop	bc
      0024E8 D1               [10] 6632 	pop	de
      0024E9 DD 34 FF         [23] 6633 	inc	-1 (ix)
      0024EC DD 7E FF         [19] 6634 	ld	a, -1 (ix)
      0024EF D6 06            [ 7] 6635 	sub	a, #0x06
      0024F1 38 BC            [12] 6636 	jr	C, 00106$
                                   6637 ;ps_engine.c:827: for (i = 0; i < MAX_OBJECTS; i++) {
      0024F3 DD 36 FF 00      [19] 6638 	ld	-1 (ix), #0x00
      0024F7                       6639 00108$:
                                   6640 ;ps_engine.c:828: g_objLayer[i]  = h[H_OBJLAYER + i];
      0024F7 3Er26            [ 7] 6641 	ld	a, #<(_g_objLayer)
      0024F9 DD 86 FF         [19] 6642 	add	a, -1 (ix)
      0024FC 6F               [ 4] 6643 	ld	l, a
                                   6644 ;	spillPairReg hl
                                   6645 ;	spillPairReg hl
      0024FD 3Es00            [ 7] 6646 	ld	a, #>(_g_objLayer)
      0024FF CE 00            [ 7] 6647 	adc	a, #0x00
      002501 67               [ 4] 6648 	ld	h, a
                                   6649 ;	spillPairReg hl
                                   6650 ;	spillPairReg hl
      002502 DD 5E FF         [19] 6651 	ld	e, -1 (ix)
      002505 16 00            [ 7] 6652 	ld	d, #0x00
      002507 FD 21 28 00      [14] 6653 	ld	iy, #0x0028
      00250B FD 19            [15] 6654 	add	iy, de
      00250D FD 09            [15] 6655 	add	iy, bc
      00250F FD 7E 00         [19] 6656 	ld	a, 0 (iy)
      002512 77               [ 7] 6657 	ld	(hl), a
                                   6658 ;ps_engine.c:829: g_drawOrder[i] = h[H_DRAWORDER + i];
      002513 3Er46            [ 7] 6659 	ld	a, #<(_g_drawOrder)
      002515 DD 86 FF         [19] 6660 	add	a, -1 (ix)
      002518 6F               [ 4] 6661 	ld	l, a
                                   6662 ;	spillPairReg hl
                                   6663 ;	spillPairReg hl
      002519 3Es00            [ 7] 6664 	ld	a, #>(_g_drawOrder)
      00251B CE 00            [ 7] 6665 	adc	a, #0x00
      00251D 67               [ 4] 6666 	ld	h, a
                                   6667 ;	spillPairReg hl
                                   6668 ;	spillPairReg hl
      00251E FD 21 48 00      [14] 6669 	ld	iy, #0x0048
      002522 FD 19            [15] 6670 	add	iy, de
      002524 FD 09            [15] 6671 	add	iy, bc
      002526 FD 7E 00         [19] 6672 	ld	a, 0 (iy)
      002529 77               [ 7] 6673 	ld	(hl), a
                                   6674 ;ps_engine.c:827: for (i = 0; i < MAX_OBJECTS; i++) {
      00252A DD 34 FF         [23] 6675 	inc	-1 (ix)
      00252D DD 7E FF         [19] 6676 	ld	a, -1 (ix)
      002530 D6 20            [ 7] 6677 	sub	a, #0x20
      002532 38 C3            [12] 6678 	jr	C, 00108$
                                   6679 ;ps_engine.c:831: for (i = 0; i < 16; i++) g_palette[i] = h[H_PALETTE + i];
      002534 1E 00            [ 7] 6680 	ld	e, #0x00
      002536                       6681 00110$:
      002536 21r66r00         [10] 6682 	ld	hl, #_g_palette
      002539 16 00            [ 7] 6683 	ld	d, #0x00
      00253B 19               [11] 6684 	add	hl, de
      00253C 7B               [ 4] 6685 	ld	a, e
      00253D FD E5            [15] 6686 	push	iy
      00253F E3               [19] 6687 	ex	(sp), hl
      002540 26 00            [ 7] 6688 	ld	h, #0x00
                                   6689 ;	spillPairReg hl
                                   6690 ;	spillPairReg hl
      002542 E3               [19] 6691 	ex	(sp), hl
      002543 FD E1            [14] 6692 	pop	iy
      002545 FD 21 68 00      [14] 6693 	ld	iy, #0x0068
      002549 C5               [11] 6694 	push	bc
      00254A 4F               [ 4] 6695 	ld	c, a
a     00254B                  [ 4] 6696 	ld	b, iyh
      00254B FD 09            [15] 6697 	add	iy, bc
      00254D C1               [10] 6698 	pop	bc
      00254E FD 09            [15] 6699 	add	iy, bc
      002550 FD 7E 00         [19] 6700 	ld	a, 0 (iy)
      002553 77               [ 7] 6701 	ld	(hl), a
      002554 1C               [ 4] 6702 	inc	e
      002555 7B               [ 4] 6703 	ld	a, e
      002556 D6 10            [ 7] 6704 	sub	a, #0x10
      002558 38 DC            [12] 6705 	jr	C, 00110$
                                   6706 ;ps_engine.c:832: for (i = 0; i < 3; i++) {
      00255A DD 36 FF 00      [19] 6707 	ld	-1 (ix), #0x00
      00255E                       6708 00112$:
                                   6709 ;ps_engine.c:833: g_far_tiles[i]  = h[H_TILES + i];
      00255E 3Er76            [ 7] 6710 	ld	a, #<(_g_far_tiles)
      002560 DD 86 FF         [19] 6711 	add	a, -1 (ix)
      002563 6F               [ 4] 6712 	ld	l, a
                                   6713 ;	spillPairReg hl
                                   6714 ;	spillPairReg hl
      002564 3Es00            [ 7] 6715 	ld	a, #>(_g_far_tiles)
      002566 CE 00            [ 7] 6716 	adc	a, #0x00
      002568 67               [ 4] 6717 	ld	h, a
                                   6718 ;	spillPairReg hl
                                   6719 ;	spillPairReg hl
      002569 DD 5E FF         [19] 6720 	ld	e, -1 (ix)
      00256C 16 00            [ 7] 6721 	ld	d, #0x00
      00256E FD 21 78 00      [14] 6722 	ld	iy, #0x0078
      002572 FD 19            [15] 6723 	add	iy, de
      002574 FD 09            [15] 6724 	add	iy, bc
      002576 FD 7E 00         [19] 6725 	ld	a, 0 (iy)
      002579 77               [ 7] 6726 	ld	(hl), a
                                   6727 ;ps_engine.c:834: g_far_levels[i] = h[H_LEVELS + i];
      00257A 3Er79            [ 7] 6728 	ld	a, #<(_g_far_levels)
      00257C DD 86 FF         [19] 6729 	add	a, -1 (ix)
      00257F 6F               [ 4] 6730 	ld	l, a
                                   6731 ;	spillPairReg hl
                                   6732 ;	spillPairReg hl
      002580 3Es00            [ 7] 6733 	ld	a, #>(_g_far_levels)
      002582 CE 00            [ 7] 6734 	adc	a, #0x00
      002584 67               [ 4] 6735 	ld	h, a
                                   6736 ;	spillPairReg hl
                                   6737 ;	spillPairReg hl
      002585 FD 21 7B 00      [14] 6738 	ld	iy, #0x007b
      002589 FD 19            [15] 6739 	add	iy, de
      00258B FD 09            [15] 6740 	add	iy, bc
      00258D FD 7E 00         [19] 6741 	ld	a, 0 (iy)
      002590 77               [ 7] 6742 	ld	(hl), a
                                   6743 ;ps_engine.c:835: g_far_rules[i]  = h[H_RULES + i];
      002591 3Er7C            [ 7] 6744 	ld	a, #<(_g_far_rules)
      002593 DD 86 FF         [19] 6745 	add	a, -1 (ix)
      002596 6F               [ 4] 6746 	ld	l, a
                                   6747 ;	spillPairReg hl
                                   6748 ;	spillPairReg hl
      002597 3Es00            [ 7] 6749 	ld	a, #>(_g_far_rules)
      002599 CE 00            [ 7] 6750 	adc	a, #0x00
      00259B 67               [ 4] 6751 	ld	h, a
                                   6752 ;	spillPairReg hl
                                   6753 ;	spillPairReg hl
      00259C FD 21 7E 00      [14] 6754 	ld	iy, #0x007e
      0025A0 FD 19            [15] 6755 	add	iy, de
      0025A2 FD 09            [15] 6756 	add	iy, bc
      0025A4 FD 7E 00         [19] 6757 	ld	a, 0 (iy)
      0025A7 77               [ 7] 6758 	ld	(hl), a
                                   6759 ;ps_engine.c:836: g_far_late[i]   = h[H_LATERULES + i];
      0025A8 3Er7F            [ 7] 6760 	ld	a, #<(_g_far_late)
      0025AA DD 86 FF         [19] 6761 	add	a, -1 (ix)
      0025AD 6F               [ 4] 6762 	ld	l, a
                                   6763 ;	spillPairReg hl
                                   6764 ;	spillPairReg hl
      0025AE 3Es00            [ 7] 6765 	ld	a, #>(_g_far_late)
      0025B0 CE 00            [ 7] 6766 	adc	a, #0x00
      0025B2 67               [ 4] 6767 	ld	h, a
                                   6768 ;	spillPairReg hl
                                   6769 ;	spillPairReg hl
      0025B3 FD 21 81 00      [14] 6770 	ld	iy, #0x0081
      0025B7 FD 19            [15] 6771 	add	iy, de
      0025B9 FD 09            [15] 6772 	add	iy, bc
      0025BB FD 7E 00         [19] 6773 	ld	a, 0 (iy)
      0025BE 77               [ 7] 6774 	ld	(hl), a
                                   6775 ;ps_engine.c:837: g_far_win[i]    = h[H_WIN + i];
      0025BF 3Er82            [ 7] 6776 	ld	a, #<(_g_far_win)
      0025C1 DD 86 FF         [19] 6777 	add	a, -1 (ix)
      0025C4 6F               [ 4] 6778 	ld	l, a
                                   6779 ;	spillPairReg hl
                                   6780 ;	spillPairReg hl
      0025C5 3Es00            [ 7] 6781 	ld	a, #>(_g_far_win)
      0025C7 CE 00            [ 7] 6782 	adc	a, #0x00
      0025C9 67               [ 4] 6783 	ld	h, a
                                   6784 ;	spillPairReg hl
                                   6785 ;	spillPairReg hl
      0025CA FD 21 84 00      [14] 6786 	ld	iy, #0x0084
      0025CE FD 19            [15] 6787 	add	iy, de
      0025D0 FD 09            [15] 6788 	add	iy, bc
      0025D2 FD 7E 00         [19] 6789 	ld	a, 0 (iy)
      0025D5 77               [ 7] 6790 	ld	(hl), a
                                   6791 ;ps_engine.c:838: g_far_msgs[i]   = h[H_MESSAGES + i];
      0025D6 3Er85            [ 7] 6792 	ld	a, #<(_g_far_msgs)
      0025D8 DD 86 FF         [19] 6793 	add	a, -1 (ix)
      0025DB 6F               [ 4] 6794 	ld	l, a
                                   6795 ;	spillPairReg hl
                                   6796 ;	spillPairReg hl
      0025DC 3Es00            [ 7] 6797 	ld	a, #>(_g_far_msgs)
      0025DE CE 00            [ 7] 6798 	adc	a, #0x00
      0025E0 67               [ 4] 6799 	ld	h, a
                                   6800 ;	spillPairReg hl
                                   6801 ;	spillPairReg hl
      0025E1 FD 21 87 00      [14] 6802 	ld	iy, #0x0087
      0025E5 FD 19            [15] 6803 	add	iy, de
      0025E7 FD 09            [15] 6804 	add	iy, bc
      0025E9 FD 7E 00         [19] 6805 	ld	a, 0 (iy)
      0025EC 77               [ 7] 6806 	ld	(hl), a
                                   6807 ;ps_engine.c:832: for (i = 0; i < 3; i++) {
      0025ED DD 34 FF         [23] 6808 	inc	-1 (ix)
      0025F0 DD 7E FF         [19] 6809 	ld	a, -1 (ix)
      0025F3 D6 03            [ 7] 6810 	sub	a, #0x03
      0025F5 DAr5Er25         [10] 6811 	jp	C, 00112$
                                   6812 ;ps_engine.c:840: for (i = 0; i < 32; i++) { g_title[i] = (char)h[H_TITLE + i]; g_author[i] = (char)h[H_AUTHOR + i]; }
      0025F8 DD 36 FF 00      [19] 6813 	ld	-1 (ix), #0x00
      0025FC                       6814 00114$:
      0025FC 3Er88            [ 7] 6815 	ld	a, #<(_g_title)
      0025FE DD 86 FF         [19] 6816 	add	a, -1 (ix)
      002601 6F               [ 4] 6817 	ld	l, a
                                   6818 ;	spillPairReg hl
                                   6819 ;	spillPairReg hl
      002602 3Es00            [ 7] 6820 	ld	a, #>(_g_title)
      002604 CE 00            [ 7] 6821 	adc	a, #0x00
      002606 67               [ 4] 6822 	ld	h, a
                                   6823 ;	spillPairReg hl
                                   6824 ;	spillPairReg hl
      002607 DD 5E FF         [19] 6825 	ld	e, -1 (ix)
      00260A 16 00            [ 7] 6826 	ld	d, #0x00
      00260C FD 21 8A 00      [14] 6827 	ld	iy, #0x008a
      002610 FD 19            [15] 6828 	add	iy, de
      002612 FD 09            [15] 6829 	add	iy, bc
      002614 FD 7E 00         [19] 6830 	ld	a, 0 (iy)
      002617 77               [ 7] 6831 	ld	(hl), a
      002618 3ErA8            [ 7] 6832 	ld	a, #<(_g_author)
      00261A DD 86 FF         [19] 6833 	add	a, -1 (ix)
      00261D 6F               [ 4] 6834 	ld	l, a
                                   6835 ;	spillPairReg hl
                                   6836 ;	spillPairReg hl
      00261E 3Es00            [ 7] 6837 	ld	a, #>(_g_author)
      002620 CE 00            [ 7] 6838 	adc	a, #0x00
      002622 67               [ 4] 6839 	ld	h, a
                                   6840 ;	spillPairReg hl
                                   6841 ;	spillPairReg hl
      002623 FD 21 AA 00      [14] 6842 	ld	iy, #0x00aa
      002627 FD 19            [15] 6843 	add	iy, de
      002629 FD 09            [15] 6844 	add	iy, bc
      00262B FD 7E 00         [19] 6845 	ld	a, 0 (iy)
      00262E 77               [ 7] 6846 	ld	(hl), a
      00262F DD 34 FF         [23] 6847 	inc	-1 (ix)
      002632 DD 7E FF         [19] 6848 	ld	a, -1 (ix)
      002635 D6 20            [ 7] 6849 	sub	a, #0x20
      002637 38 C3            [12] 6850 	jr	C, 00114$
                                   6851 ;ps_engine.c:841: g_title[31] = 0; g_author[31] = 0;
      002639 21rA7r00         [10] 6852 	ld	hl, #(_g_title + 31)
      00263C 36 00            [10] 6853 	ld	(hl), #0x00
      00263E 21rC7r00         [10] 6854 	ld	hl, #(_g_author + 31)
      002641 36 00            [10] 6855 	ld	(hl), #0x00
                                   6856 ;ps_engine.c:842: g_allMask = (g_nobj >= 32) ? 0xFFFFFFFFUL : (((u32)1 << g_nobj) - 1);
      002643 3Ar00r00         [13] 6857 	ld	a, (_g_nobj+0)
      002646 D6 20            [ 7] 6858 	sub	a, #0x20
      002648 38 12            [12] 6859 	jr	C, 00118$
      00264A DD 36 FC FF      [19] 6860 	ld	-4 (ix), #0xff
      00264E DD 36 FD FF      [19] 6861 	ld	-3 (ix), #0xff
      002652 DD 36 FE FF      [19] 6862 	ld	-2 (ix), #0xff
      002656 DD 36 FF FF      [19] 6863 	ld	-1 (ix), #0xff
      00265A 18 2D            [12] 6864 	jr	00119$
      00265C                       6865 00118$:
      00265C 3Ar00r00         [13] 6866 	ld	a, (_g_nobj+0)
      00265F 5F               [ 4] 6867 	ld	e, a
      002660 21 01 00         [10] 6868 	ld	hl, #0x0001
      002663 01 00 00         [10] 6869 	ld	bc, #0x0000
      002666 1C               [ 4] 6870 	inc	e
      002667 18 05            [12] 6871 	jr	00181$
      002669                       6872 00180$:
      002669 29               [11] 6873 	add	hl, hl
      00266A CB 11            [ 8] 6874 	rl	c
      00266C CB 10            [ 8] 6875 	rl	b
      00266E                       6876 00181$:
      00266E 1D               [ 4] 6877 	dec	e
      00266F 20 F8            [12] 6878 	jr	NZ,00180$
      002671 7D               [ 4] 6879 	ld	a, l
      002672 C6 FF            [ 7] 6880 	add	a, #0xff
      002674 DD 77 FC         [19] 6881 	ld	-4 (ix), a
      002677 7C               [ 4] 6882 	ld	a, h
      002678 CE FF            [ 7] 6883 	adc	a, #0xff
      00267A DD 77 FD         [19] 6884 	ld	-3 (ix), a
      00267D 79               [ 4] 6885 	ld	a, c
      00267E CE FF            [ 7] 6886 	adc	a, #0xff
      002680 DD 77 FE         [19] 6887 	ld	-2 (ix), a
      002683 78               [ 4] 6888 	ld	a, b
      002684 CE FF            [ 7] 6889 	adc	a, #0xff
      002686 DD 77 FF         [19] 6890 	ld	-1 (ix), a
      002689                       6891 00119$:
      002689 11r0Ar00         [10] 6892 	ld	de, #_g_allMask
      00268C 21 03 00         [10] 6893 	ld	hl, #3
      00268F 39               [11] 6894 	add	hl, sp
      002690 01 04 00         [10] 6895 	ld	bc, #4
      002693 ED B0            [21] 6896 	ldir
                                   6897 ;ps_engine.c:843: }
      002695 DD F9            [10] 6898 	ld	sp, ix
      002697 DD E1            [14] 6899 	pop	ix
      002699 C9               [10] 6900 	ret
                                   6901 ;ps_engine.c:845: void main(void) {
                                   6902 ;	---------------------------------
                                   6903 ; Function main
                                   6904 ; ---------------------------------
      00269A                       6905 _main::
      00269A DD E5            [15] 6906 	push	ix
      00269C DD 21 00 00      [14] 6907 	ld	ix,#0
      0026A0 DD 39            [15] 6908 	add	ix,sp
      0026A2 21 FB FF         [10] 6909 	ld	hl, #-5
      0026A5 39               [11] 6910 	add	hl, sp
      0026A6 F9               [ 6] 6911 	ld	sp, hl
                                   6912 ;ps_engine.c:846: SMS_displayOff();
      0026A7 21 40 01         [10] 6913 	ld	hl, #0x0140
      0026AA CDr00r00         [17] 6914 	call	_SMS_VDPturnOffFeature
                                   6915 ;ps_engine.c:847: load_header();
      0026AD CDr49r24         [17] 6916 	call	_load_header
                                   6917 ;ps_engine.c:848: SMS_loadBGPalette(g_palette);
      0026B0 21r66r00         [10] 6918 	ld	hl, #_g_palette
      0026B3 CDr00r00         [17] 6919 	call	_SMS_loadBGPalette
                                   6920 ;ps_engine.c:849: SMS_loadSpritePalette(g_palette);
      0026B6 21r66r00         [10] 6921 	ld	hl, #_g_palette
      0026B9 CDr00r00         [17] 6922 	call	_SMS_loadSpritePalette
                                   6923 ;ps_engine.c:850: SMS_setBackdropColor(0);
      0026BC 2E 00            [ 7] 6924 	ld	l, #0x00
                                   6925 ;	spillPairReg hl
                                   6926 ;	spillPairReg hl
      0026BE CDr00r00         [17] 6927 	call	_SMS_setBackdropColor
                                   6928 ;ps_engine.c:851: SMS_load1bppTiles(ps_font, FONT_BASE, 768, 0, g_textcol);
      0026C1 3Ar05r00         [13] 6929 	ld	a, (_g_textcol+0)
      0026C4 67               [ 4] 6930 	ld	h, a
      0026C5 2E 00            [ 7] 6931 	ld	l, #0x00
      0026C7 E5               [11] 6932 	push	hl
      0026C8 21 00 03         [10] 6933 	ld	hl, #0x0300
      0026CB E5               [11] 6934 	push	hl
      0026CC 11 60 01         [10] 6935 	ld	de, #0x0160
      0026CF 21r09r00         [10] 6936 	ld	hl, #_ps_font
      0026D2 CDr00r00         [17] 6937 	call	_SMS_load1bppTiles
                                   6938 ;ps_engine.c:852: SMS_initSprites(); SMS_copySpritestoSAT();
      0026D5 CDr00r00         [17] 6939 	call	_SMS_initSprites
      0026D8 CDr00r00         [17] 6940 	call	_SMS_copySpritestoSAT
                                   6941 ;ps_engine.c:853: screen_clear();
      0026DB CDr96r1F         [17] 6942 	call	_screen_clear
                                   6943 ;ps_engine.c:854: SMS_displayOn();
      0026DE 21 40 01         [10] 6944 	ld	hl, #0x0140
      0026E1 CDr00r00         [17] 6945 	call	_SMS_VDPturnOnFeature
      0026E4                       6946 00126$:
                                   6947 ;ps_engine.c:857: title_screen();
      0026E4 CDrCDr22         [17] 6948 	call	_title_screen
                                   6949 ;ps_engine.c:858: g_level_idx = 0;
      0026E7 21rCDr15         [10] 6950 	ld	hl, #_g_level_idx
      0026EA 36 00            [10] 6951 	ld	(hl), #0x00
                                   6952 ;ps_engine.c:859: while (g_level_idx < g_nlevels) {
      0026EC                       6953 00118$:
      0026EC 21r02r00         [10] 6954 	ld	hl, #_g_nlevels
                                   6955 ;ps_engine.c:860: if (level_fetch(g_level_idx)) {           /* message "level"     */
      0026EF 3ArCDr15         [13] 6956 	ld	a,(_g_level_idx+0)
      0026F2 BE               [ 7] 6957 	cp	a,(hl)
      0026F3 D2r9Br27         [10] 6958 	jp	NC,00120$
      0026F6 CDrA8r19         [17] 6959 	call	_level_fetch
      0026F9 B7               [ 4] 6960 	or	a, a
      0026FA 28 0C            [12] 6961 	jr	Z, 00102$
                                   6962 ;ps_engine.c:861: show_message(msg_ptr);
      0026FC 2Ar08r16         [16] 6963 	ld	hl, (_msg_ptr)
      0026FF CDr80r20         [17] 6964 	call	_show_message
                                   6965 ;ps_engine.c:862: g_level_idx++;
      002702 21rCDr15         [10] 6966 	ld	hl, #_g_level_idx
      002705 34               [11] 6967 	inc	(hl)
                                   6968 ;ps_engine.c:863: continue;
      002706 18 E4            [12] 6969 	jr	00118$
      002708                       6970 00102$:
                                   6971 ;ps_engine.c:865: board_reset_view();
      002708 CDrBDr1F         [17] 6972 	call	_board_reset_view
                                   6973 ;ps_engine.c:866: if (g_flags & FLG_RUNRULESONSTART) { turn(-1); draw_board(); }
      00270B 3Ar03r00         [13] 6974 	ld	a, (_g_flags+0)
      00270E 0F               [ 4] 6975 	rrca
      00270F 30 08            [12] 6976 	jr	NC, 00125$
      002711 3E FF            [ 7] 6977 	ld	a, #0xff
      002713 CDr7Er14         [17] 6978 	call	_turn
      002716 CDr72r1F         [17] 6979 	call	_draw_board
      002719                       6980 00125$:
                                   6981 ;ps_engine.c:870: frame_wait();
      002719 CDr7Dr21         [17] 6982 	call	_frame_wait
                                   6983 ;ps_engine.c:871: in = poll_input();
      00271C CDr90r21         [17] 6984 	call	_poll_input
                                   6985 ;ps_engine.c:872: if (in == 0xFF) continue;
      00271F FE FF            [ 7] 6986 	cp	a, #0xff
      002721 28 F6            [12] 6987 	jr	Z, 00125$
                                   6988 ;ps_engine.c:873: if (in == 5) { if (undo_pop()) draw_board(); continue; }
      002723 FE 05            [ 7] 6989 	cp	a, #0x05
      002725 20 0B            [12] 6990 	jr	NZ, 00110$
      002727 CDr19r19         [17] 6991 	call	_undo_pop
      00272A B7               [ 4] 6992 	or	a, a
      00272B 28 EC            [12] 6993 	jr	Z, 00125$
      00272D CDr72r1F         [17] 6994 	call	_draw_board
      002730 18 E7            [12] 6995 	jr	00125$
      002732                       6996 00110$:
                                   6997 ;ps_engine.c:874: if (in == 6) {
      002732 FE 06            [ 7] 6998 	cp	a, #0x06
      002734 20 55            [12] 6999 	jr	NZ, 00113$
                                   7000 ;ps_engine.c:876: undo_push(lev);
      002736 21rC8r00         [10] 7001 	ld	hl, #_lev
      002739 CDr92r18         [17] 7002 	call	_undo_push
                                   7003 ;ps_engine.c:877: for (i = 0; i < g_ncells; i++) { lev[i] = chkpt[i]; mov[i] = 0; }
      00273C DD 36 FF 00      [19] 7004 	ld	-1 (ix), #0x00
      002740                       7005 00123$:
      002740 21rCCr15         [10] 7006 	ld	hl, #_g_ncells
      002743 DD 7E FF         [19] 7007 	ld	a, -1 (ix)
      002746 96               [ 7] 7008 	sub	a, (hl)
      002747 30 3D            [12] 7009 	jr	NC, 00111$
      002749 DD 6E FF         [19] 7010 	ld	l, -1 (ix)
                                   7011 ;	spillPairReg hl
                                   7012 ;	spillPairReg hl
      00274C 26 00            [ 7] 7013 	ld	h, #0x00
                                   7014 ;	spillPairReg hl
                                   7015 ;	spillPairReg hl
      00274E 29               [11] 7016 	add	hl, hl
      00274F 29               [11] 7017 	add	hl, hl
      002750 4D               [ 4] 7018 	ld	c, l
      002751 44               [ 4] 7019 	ld	b, h
      002752 21rC8r00         [10] 7020 	ld	hl, #_lev
      002755 09               [11] 7021 	add	hl, bc
      002756 EB               [ 4] 7022 	ex	de, hl
      002757 21rC8r09         [10] 7023 	ld	hl, #_chkpt
      00275A 09               [11] 7024 	add	hl, bc
      00275B D5               [11] 7025 	push	de
      00275C C5               [11] 7026 	push	bc
      00275D EB               [ 4] 7027 	ex	de, hl
      00275E 21 04 00         [10] 7028 	ld	hl, #4
      002761 39               [11] 7029 	add	hl, sp
      002762 EB               [ 4] 7030 	ex	de, hl
      002763 01 04 00         [10] 7031 	ld	bc, #0x0004
      002766 ED B0            [21] 7032 	ldir
      002768 C1               [10] 7033 	pop	bc
      002769 D1               [10] 7034 	pop	de
      00276A C5               [11] 7035 	push	bc
      00276B 21 02 00         [10] 7036 	ld	hl, #2
      00276E 39               [11] 7037 	add	hl, sp
      00276F 01 04 00         [10] 7038 	ld	bc, #0x0004
      002772 ED B0            [21] 7039 	ldir
      002774 C1               [10] 7040 	pop	bc
      002775 21rC8r03         [10] 7041 	ld	hl, #_mov
      002778 09               [11] 7042 	add	hl, bc
      002779 AF               [ 4] 7043 	xor	a, a
      00277A 77               [ 7] 7044 	ld	(hl), a
      00277B 23               [ 6] 7045 	inc	hl
      00277C 77               [ 7] 7046 	ld	(hl), a
      00277D 23               [ 6] 7047 	inc	hl
      00277E 77               [ 7] 7048 	ld	(hl), a
      00277F 23               [ 6] 7049 	inc	hl
      002780 77               [ 7] 7050 	ld	(hl), a
      002781 DD 34 FF         [23] 7051 	inc	-1 (ix)
      002784 18 BA            [12] 7052 	jr	00123$
      002786                       7053 00111$:
                                   7054 ;ps_engine.c:878: draw_board();
      002786 CDr72r1F         [17] 7055 	call	_draw_board
                                   7056 ;ps_engine.c:879: continue;
      002789 18 8E            [12] 7057 	jr	00125$
      00278B                       7058 00113$:
                                   7059 ;ps_engine.c:881: if (post_turn(turn((s8)in))) break;   /* level complete       */
      00278B CDr7Er14         [17] 7060 	call	_turn
      00278E CDr2Cr23         [17] 7061 	call	_post_turn
      002791 B7               [ 4] 7062 	or	a, a
      002792 28 85            [12] 7063 	jr	Z, 00125$
                                   7064 ;ps_engine.c:883: g_level_idx++;
      002794 21rCDr15         [10] 7065 	ld	hl, #_g_level_idx
      002797 34               [11] 7066 	inc	(hl)
      002798 C3rECr26         [10] 7067 	jp	00118$
      00279B                       7068 00120$:
                                   7069 ;ps_engine.c:885: screen_clear();
      00279B CDr96r1F         [17] 7070 	call	_screen_clear
                                   7071 ;ps_engine.c:886: draw_text_centered(11, "CONGRATULATIONS!");
      00279E 11rB4r27         [10] 7072 	ld	de, #___str_4
      0027A1 3E 0B            [ 7] 7073 	ld	a, #0x0b
      0027A3 CDr5Cr20         [17] 7074 	call	_draw_text_centered
                                   7075 ;ps_engine.c:887: draw_text_centered(14, "YOU WIN");
      0027A6 11rC5r27         [10] 7076 	ld	de, #___str_5
      0027A9 3E 0E            [ 7] 7077 	ld	a, #0x0e
      0027AB CDr5Cr20         [17] 7078 	call	_draw_text_centered
                                   7079 ;ps_engine.c:888: wait_button1();
      0027AE CDr85r21         [17] 7080 	call	_wait_button1
                                   7081 ;ps_engine.c:890: }
      0027B1 C3rE4r26         [10] 7082 	jp	00126$
      0027B4                       7083 ___str_4:
      0027B4 43 4F 4E 47 52 41 54  7084 	.ascii "CONGRATULATIONS!"
             55 4C 41 54 49 4F 4E
             53 21
      0027C4 00                    7085 	.db 0x00
      0027C5                       7086 ___str_5:
      0027C5 59 4F 55 20 57 49 4E  7087 	.ascii "YOU WIN"
      0027CC 00                    7088 	.db 0x00
                                   7089 	.area _CODE
                                   7090 	.area _INITIALIZER
      000000                       7091 __xinit__rng_state:
      000000 E1 AC                 7092 	.dw #0xace1
                                   7093 	.area _CABS (ABS)
      007FF0                       7094 	.org 0x7FF0
      007FF0                       7095 ___SMS__SEGA_signature:
      007FF0 54                    7096 	.db #0x54	; 84	'T'
      007FF1 4D                    7097 	.db #0x4d	; 77	'M'
      007FF2 52                    7098 	.db #0x52	; 82	'R'
      007FF3 20                    7099 	.db #0x20	; 32
      007FF4 53                    7100 	.db #0x53	; 83	'S'
      007FF5 45                    7101 	.db #0x45	; 69	'E'
      007FF6 47                    7102 	.db #0x47	; 71	'G'
      007FF7 41                    7103 	.db #0x41	; 65	'A'
      007FF8 FF                    7104 	.db #0xff	; 255
      007FF9 FF                    7105 	.db #0xff	; 255
      007FFA FF                    7106 	.db #0xff	; 255
      007FFB FF                    7107 	.db #0xff	; 255
      007FFC 99                    7108 	.db #0x99	; 153
      007FFD 99                    7109 	.db #0x99	; 153
      007FFE 00                    7110 	.db #0x00	; 0
      007FFF 4C                    7111 	.db #0x4c	; 76	'L'
